(dp1
S'output'
p2
S"<class 'pymongo.errors.AutoReconnect'> could not connect to 127.0.0.1:27017: [Errno 61] Connection refused"
p3
sS'layer'
p4
S'/Users/marcelwehrle/Virtualenvs/kti/web/applications/KTI/models/db_wizard_populate.py'
p5
sS'code'
p6
S'from gluon.contrib.populate import populate\nif db(db.auth_user).isempty():\n     populate(db.auth_user,10)\n'
p7
sS'snapshot'
p8
(dp9
S'exception'
p10
(dp11
S'__module__'
p12
S"'pymongo.errors'"
p13
sS'__getslice__'
p14
S"<method-wrapper '__getslice__' of AutoReconnect object>"
p15
sS'__str__'
p16
S"<method-wrapper '__str__' of AutoReconnect object>"
p17
sS'__reduce__'
p18
S'<built-in method __reduce__ of AutoReconnect object>'
p19
sS'__dict__'
p20
S"{'errors': []}"
p21
sS'__sizeof__'
p22
S'<built-in method __sizeof__ of AutoReconnect object>'
p23
sS'__weakref__'
p24
S'None'
p25
sS'__init__'
p26
S"<bound method AutoReconnect.__init__ of AutoReco...27.0.0.1:27017: [Errno 61] Connection refused',)>"
p27
sS'__setattr__'
p28
S"<method-wrapper '__setattr__' of AutoReconnect object>"
p29
sS'__reduce_ex__'
p30
S'<built-in method __reduce_ex__ of AutoReconnect object>'
p31
sS'__new__'
p32
S'<built-in method __new__ of type object>'
p33
sS'__format__'
p34
S'<built-in method __format__ of AutoReconnect object>'
p35
sS'__class__'
p36
S"<class 'pymongo.errors.AutoReconnect'>"
p37
sS'errors'
p38
S'[]'
p39
sS'__doc__'
p40
S"'Raised when a connection to the database is lost...he first successful\\n    connection is made).\\n    '"
p41
sS'__getitem__'
p42
S"<method-wrapper '__getitem__' of AutoReconnect object>"
p43
sS'__setstate__'
p44
S'<built-in method __setstate__ of AutoReconnect object>'
p45
sS'__getattribute__'
p46
S"<method-wrapper '__getattribute__' of AutoReconnect object>"
p47
sS'args'
p48
S"('could not connect to 127.0.0.1:27017: [Errno 61] Connection refused',)"
p49
sS'__subclasshook__'
p50
S'<built-in method __subclasshook__ of type object>'
p51
sS'__unicode__'
p52
S'<built-in method __unicode__ of AutoReconnect object>'
p53
sS'__delattr__'
p54
S"<method-wrapper '__delattr__' of AutoReconnect object>"
p55
sS'__repr__'
p56
S"<method-wrapper '__repr__' of AutoReconnect object>"
p57
sS'__hash__'
p58
S"<method-wrapper '__hash__' of AutoReconnect object>"
p59
ssS'evalue'
p60
S'could not connect to 127.0.0.1:27017: [Errno 61] Connection refused'
p61
sS'request'
p62
cgluon.html
XML_unpickle
p63
(S's\xa0H\x00\x00<div><table><tr><td style="font-weight:bold;vertical-align:top;">ajax</td><td style="vertical-align:top;">:</td><td><div>False</div></td></tr><tr><td style="font-weight:bold;vertical-align:top;">application</td><td style="vertical-align:top;">:</td><td><div>KTI</div></td></tr><tr><td style="font-weight:bold;vertical-align:top;">args</td><td style="vertical-align:top;">:</td><td><div><table></table></div></td></tr><tr><td style="font-weight:bold;vertical-align:top;">cid</td><td style="vertical-align:top;">:</td><td><div>None</div></td></tr><tr><td style="font-weight:bold;vertical-align:top;">client</td><td style="vertical-align:top;">:</td><td><div>127.0.0.1</div></td></tr><tr><td style="font-weight:bold;vertical-align:top;">controller</td><td style="vertical-align:top;">:</td><td><div>default</div></td></tr><tr><td style="font-weight:bold;vertical-align:top;">cookies</td><td style="vertical-align:top;">:</td><td><div><table></table></div></td></tr><tr><td style="font-weight:bold;vertical-align:top;">env</td><td style="vertical-align:top;">:</td><td><div><table><tr><td style="font-weight:bold;vertical-align:top;">HTTP_ACCEPT</td><td style="vertical-align:top;">:</td><td><div>text/html,application/xhtml+xml,application/xml;q=0.9,image/webp,*/*;q=0.8</div></td></tr><tr><td style="font-weight:bold;vertical-align:top;">HTTP_ACCEPT_ENCODING</td><td style="vertical-align:top;">:</td><td><div>gzip,deflate,sdch</div></td></tr><tr><td style="font-weight:bold;vertical-align:top;">HTTP_ACCEPT_LANGUAGE</td><td style="vertical-align:top;">:</td><td><div>de-DE,de;q=0.8,en-US;q=0.6,en;q=0.4</div></td></tr><tr><td style="font-weight:bold;vertical-align:top;">HTTP_CONNECTION</td><td style="vertical-align:top;">:</td><td><div>keep-alive</div></td></tr><tr><td style="font-weight:bold;vertical-align:top;">HTTP_HOST</td><td style="vertical-align:top;">:</td><td><div>127.0.0.1:8000</div></td></tr><tr><td style="font-weight:bold;vertical-align:top;">HTTP_USER_AGENT</td><td style="vertical-align:top;">:</td><td><div>Mozilla/5.0 (Macintosh; Intel Mac OS X 10_9_2) AppleWebKit/537.36 (KHTML, like Gecko) Chrome/34.0.1847.116 Safari/537.36</div></td></tr><tr><td style="font-weight:bold;vertical-align:top;">PATH_INFO</td><td style="vertical-align:top;">:</td><td><div>/KTI/default/index</div></td></tr><tr><td style="font-weight:bold;vertical-align:top;">QUERY_STRING</td><td style="vertical-align:top;">:</td><td><div></div></td></tr><tr><td style="font-weight:bold;vertical-align:top;">REMOTE_ADDR</td><td style="vertical-align:top;">:</td><td><div>127.0.0.1</div></td></tr><tr><td style="font-weight:bold;vertical-align:top;">REMOTE_PORT</td><td style="vertical-align:top;">:</td><td><div>58579</div></td></tr><tr><td style="font-weight:bold;vertical-align:top;">REQUEST_METHOD</td><td style="vertical-align:top;">:</td><td><div>GET</div></td></tr><tr><td style="font-weight:bold;vertical-align:top;">SCRIPT_NAME</td><td style="vertical-align:top;">:</td><td><div></div></td></tr><tr><td style="font-weight:bold;vertical-align:top;">SERVER_NAME</td><td style="vertical-align:top;">:</td><td><div>Marcels-MacBook-Air.local</div></td></tr><tr><td style="font-weight:bold;vertical-align:top;">SERVER_PORT</td><td style="vertical-align:top;">:</td><td><div>8000</div></td></tr><tr><td style="font-weight:bold;vertical-align:top;">SERVER_PROTOCOL</td><td style="vertical-align:top;">:</td><td><div>HTTP/1.1</div></td></tr><tr><td style="font-weight:bold;vertical-align:top;">SERVER_SOFTWARE</td><td style="vertical-align:top;">:</td><td><div>Rocket 1.2.6</div></td></tr><tr><td style="font-weight:bold;vertical-align:top;">app_folders</td><td style="vertical-align:top;">:</td><td><div>set([&#x27;/Users/marcelwehrle/Virtualenvs/kti/web/applications/KTI/&#x27;, &#x27;/Users/marcelwehrle/Virtualenvs/kti/web/applications/admin/&#x27;])</div></td></tr><tr><td style="font-weight:bold;vertical-align:top;">applications_parent</td><td style="vertical-align:top;">:</td><td><div>/Users/marcelwehrle/Virtualenvs/kti/web</div></td></tr><tr><td style="font-weight:bold;vertical-align:top;">cmd_args</td><td style="vertical-align:top;">:</td><td><div><table></table></div></td></tr><tr><td style="font-weight:bold;vertical-align:top;">cmd_options</td><td style="vertical-align:top;">:</td><td><div>&lt;Values at 0x10bd6a320: {&#x27;verbose&#x27;: False, &#x27;ip&#x27;: &#x27;127.0.0.1&#x27;, &#x27;debuglevel&#x27;: 30, &#x27;with_scheduler&#x27;: False, &#x27;ips&#x27;: [], &#x27;shutdown_timeout&#x27;: 5, &#x27;taskbar&#x27;: False, &#x27;with_coverage&#x27;: False, &#x27;port&#x27;: 8000, &#x27;maxthreads&#x27;: None, &#x27;softcron&#x27;: False, &#x27;server_name&#x27;: &#x27;Marcels-MacBook-Air.local&#x27;, &#x27;bpython&#x27;: False, &#x27;nogui&#x27;: False, &#x27;pid_filename&#x27;: &#x27;httpserver.pid&#x27;, &#x27;extcron&#x27;: False, &#x27;runcron&#x27;: False, &#x27;run_system_tests&#x27;: False, &#x27;test&#x27;: None, &#x27;folder&#x27;: &#x27;/Users/marcelwehrle/Virtualenvs/kti/web&#x27;, &#x27;config&#x27;: &#x27;&#x27;, &#x27;minthreads&#x27;: None, &#x27;shell&#x27;: None, &#x27;run&#x27;: &#x27;&#x27;, &#x27;log_filename&#x27;: &#x27;httpserver.log&#x27;, &#x27;profiler_dir&#x27;: None, &#x27;args&#x27;: [&#x27;&#x27;], &#x27;socket_timeout&#x27;: 5, &#x27;ssl_ca_certificate&#x27;: None, &#x27;scheduler&#x27;: None, &#x27;interfaces&#x27;: None, &#x27;ssl_private_key&#x27;: &#x27;&#x27;, &#x27;scheduler_groups&#x27;: None, &#x27;password&#x27;: &#x27;&lt;ask&gt;&#x27;, &#x27;request_queue_size&#x27;: 5, &#x27;ssl_certificate&#x27;: &#x27;&#x27;, &#x27;cronjob&#x27;: False, &#x27;numthreads&#x27;: None, &#x27;quiet&#x27;: False, &#x27;import_models&#x27;: False, &#x27;timeout&#x27;: 10, &#x27;plain&#x27;: False, &#x27;nobanner&#x27;: False}&gt;</div></td></tr><tr><td style="font-weight:bold;vertical-align:top;">db_sessions</td><td style="vertical-align:top;">:</td><td><div>set([])</div></td></tr><tr><td style="font-weight:bold;vertical-align:top;">debugging</td><td style="vertical-align:top;">:</td><td><div>False</div></td></tr><tr><td style="font-weight:bold;vertical-align:top;">gluon_parent</td><td style="vertical-align:top;">:</td><td><div>/Users/marcelwehrle/Virtualenvs/kti/web</div></td></tr><tr><td style="font-weight:bold;vertical-align:top;">http_accept</td><td style="vertical-align:top;">:</td><td><div>text/html,application/xhtml+xml,application/xml;q=0.9,image/webp,*/*;q=0.8</div></td></tr><tr><td style="font-weight:bold;vertical-align:top;">http_accept_encoding</td><td style="vertical-align:top;">:</td><td><div>gzip,deflate,sdch</div></td></tr><tr><td style="font-weight:bold;vertical-align:top;">http_accept_language</td><td style="vertical-align:top;">:</td><td><div>de-DE,de;q=0.8,en-US;q=0.6,en;q=0.4</div></td></tr><tr><td style="font-weight:bold;vertical-align:top;">http_connection</td><td style="vertical-align:top;">:</td><td><div>keep-alive</div></td></tr><tr><td style="font-weight:bold;vertical-align:top;">http_host</td><td style="vertical-align:top;">:</td><td><div>127.0.0.1:8000</div></td></tr><tr><td style="font-weight:bold;vertical-align:top;">http_user_agent</td><td style="vertical-align:top;">:</td><td><div>Mozilla/5.0 (Macintosh; Intel Mac OS X 10_9_2) AppleWebKit/537.36 (KHTML, like Gecko) Chrome/34.0.1847.116 Safari/537.36</div></td></tr><tr><td style="font-weight:bold;vertical-align:top;">is_jython</td><td style="vertical-align:top;">:</td><td><div>False</div></td></tr><tr><td style="font-weight:bold;vertical-align:top;">is_pypy</td><td style="vertical-align:top;">:</td><td><div>False</div></td></tr><tr><td style="font-weight:bold;vertical-align:top;">is_source</td><td style="vertical-align:top;">:</td><td><div>True</div></td></tr><tr><td style="font-weight:bold;vertical-align:top;">local_hosts</td><td style="vertical-align:top;">:</td><td><div><table><tr><td><div>::ffff:127.0.0.1</div></td></tr><tr><td><div>::1</div></td></tr><tr><td><div>fe80::1%lo0</div></td></tr><tr><td><div>1.0.0.127.in-addr.arpa</div></td></tr><tr><td><div>127.0.0.1</div></td></tr><tr><td><div>Marcels-MacBook-Air.local</div></td></tr></table></div></td></tr><tr><td style="font-weight:bold;vertical-align:top;">path_info</td><td style="vertical-align:top;">:</td><td><div>/KTI/default/index</div></td></tr><tr><td style="font-weight:bold;vertical-align:top;">query_string</td><td style="vertical-align:top;">:</td><td><div></div></td></tr><tr><td style="font-weight:bold;vertical-align:top;">remote_addr</td><td style="vertical-align:top;">:</td><td><div>127.0.0.1</div></td></tr><tr><td style="font-weight:bold;vertical-align:top;">remote_port</td><td style="vertical-align:top;">:</td><td><div>58579</div></td></tr><tr><td style="font-weight:bold;vertical-align:top;">request_method</td><td style="vertical-align:top;">:</td><td><div>GET</div></td></tr><tr><td style="font-weight:bold;vertical-align:top;">request_uri</td><td style="vertical-align:top;">:</td><td><div>/KTI/default/index</div></td></tr><tr><td style="font-weight:bold;vertical-align:top;">script_name</td><td style="vertical-align:top;">:</td><td><div></div></td></tr><tr><td style="font-weight:bold;vertical-align:top;">server_name</td><td style="vertical-align:top;">:</td><td><div>Marcels-MacBook-Air.local</div></td></tr><tr><td style="font-weight:bold;vertical-align:top;">server_port</td><td style="vertical-align:top;">:</td><td><div>8000</div></td></tr><tr><td style="font-weight:bold;vertical-align:top;">server_protocol</td><td style="vertical-align:top;">:</td><td><div>HTTP/1.1</div></td></tr><tr><td style="font-weight:bold;vertical-align:top;">server_software</td><td style="vertical-align:top;">:</td><td><div>Rocket 1.2.6</div></td></tr><tr><td style="font-weight:bold;vertical-align:top;">web2py_path</td><td style="vertical-align:top;">:</td><td><div>/Users/marcelwehrle/Virtualenvs/kti/web</div></td></tr><tr><td style="font-weight:bold;vertical-align:top;">web2py_version</td><td style="vertical-align:top;">:</td><td><div>2.9.5-stable+timestamp.2014.03.22.02.22.24</div></td></tr><tr><td style="font-weight:bold;vertical-align:top;">wsgi.errors</td><td style="vertical-align:top;">:</td><td><div>&lt;open file &#x27;&lt;stderr&gt;&#x27;, mode &#x27;w&#x27; at 0x10ae391e0&gt;</div></td></tr><tr><td style="font-weight:bold;vertical-align:top;">wsgi.file_wrapper</td><td style="vertical-align:top;">:</td><td><div>&lt;class wsgiref.util.FileWrapper at 0x10bade668&gt;</div></td></tr><tr><td style="font-weight:bold;vertical-align:top;">wsgi.input</td><td style="vertical-align:top;">:</td><td><div>&lt;socket._fileobject object at 0x10e2dbf50&gt;</div></td></tr><tr><td style="font-weight:bold;vertical-align:top;">wsgi.multiprocess</td><td style="vertical-align:top;">:</td><td><div>False</div></td></tr><tr><td style="font-weight:bold;vertical-align:top;">wsgi.multithread</td><td style="vertical-align:top;">:</td><td><div>True</div></td></tr><tr><td style="font-weight:bold;vertical-align:top;">wsgi.run_once</td><td style="vertical-align:top;">:</td><td><div>False</div></td></tr><tr><td style="font-weight:bold;vertical-align:top;">wsgi.url_scheme</td><td style="vertical-align:top;">:</td><td><div>http</div></td></tr><tr><td style="font-weight:bold;vertical-align:top;">wsgi.version</td><td style="vertical-align:top;">:</td><td><div><table><tr><td><div>1</div></td></tr><tr><td><div>0</div></td></tr></table></div></td></tr><tr><td style="font-weight:bold;vertical-align:top;">wsgi_errors</td><td style="vertical-align:top;">:</td><td><div>&lt;open file &#x27;&lt;stderr&gt;&#x27;, mode &#x27;w&#x27; at 0x10ae391e0&gt;</div></td></tr><tr><td style="font-weight:bold;vertical-align:top;">wsgi_file_wrapper</td><td style="vertical-align:top;">:</td><td><div>&lt;class wsgiref.util.FileWrapper at 0x10bade668&gt;</div></td></tr><tr><td style="font-weight:bold;vertical-align:top;">wsgi_input</td><td style="vertical-align:top;">:</td><td><div>&lt;socket._fileobject object at 0x10e2dbf50&gt;</div></td></tr><tr><td style="font-weight:bold;vertical-align:top;">wsgi_multiprocess</td><td style="vertical-align:top;">:</td><td><div>False</div></td></tr><tr><td style="font-weight:bold;vertical-align:top;">wsgi_multithread</td><td style="vertical-align:top;">:</td><td><div>True</div></td></tr><tr><td style="font-weight:bold;vertical-align:top;">wsgi_run_once</td><td style="vertical-align:top;">:</td><td><div>False</div></td></tr><tr><td style="font-weight:bold;vertical-align:top;">wsgi_url_scheme</td><td style="vertical-align:top;">:</td><td><div>http</div></td></tr><tr><td style="font-weight:bold;vertical-align:top;">wsgi_version</td><td style="vertical-align:top;">:</td><td><div><table><tr><td><div>1</div></td></tr><tr><td><div>0</div></td></tr></table></div></td></tr></table></div></td></tr><tr><td style="font-weight:bold;vertical-align:top;">extension</td><td style="vertical-align:top;">:</td><td><div>html</div></td></tr><tr><td style="font-weight:bold;vertical-align:top;">folder</td><td style="vertical-align:top;">:</td><td><div>/Users/marcelwehrle/Virtualenvs/kti/web/applications/KTI/</div></td></tr><tr><td style="font-weight:bold;vertical-align:top;">function</td><td style="vertical-align:top;">:</td><td><div>index</div></td></tr><tr><td style="font-weight:bold;vertical-align:top;">global_settings</td><td style="vertical-align:top;">:</td><td><div><table><tr><td style="font-weight:bold;vertical-align:top;">app_folders</td><td style="vertical-align:top;">:</td><td><div>set([&#x27;/Users/marcelwehrle/Virtualenvs/kti/web/applications/KTI/&#x27;, &#x27;/Users/marcelwehrle/Virtualenvs/kti/web/applications/admin/&#x27;])</div></td></tr><tr><td style="font-weight:bold;vertical-align:top;">applications_parent</td><td style="vertical-align:top;">:</td><td><div>/Users/marcelwehrle/Virtualenvs/kti/web</div></td></tr><tr><td style="font-weight:bold;vertical-align:top;">cmd_args</td><td style="vertical-align:top;">:</td><td><div><table></table></div></td></tr><tr><td style="font-weight:bold;vertical-align:top;">cmd_options</td><td style="vertical-align:top;">:</td><td><div>&lt;Values at 0x10bd6a320: {&#x27;verbose&#x27;: False, &#x27;ip&#x27;: &#x27;127.0.0.1&#x27;, &#x27;debuglevel&#x27;: 30, &#x27;with_scheduler&#x27;: False, &#x27;ips&#x27;: [], &#x27;shutdown_timeout&#x27;: 5, &#x27;taskbar&#x27;: False, &#x27;with_coverage&#x27;: False, &#x27;port&#x27;: 8000, &#x27;maxthreads&#x27;: None, &#x27;softcron&#x27;: False, &#x27;server_name&#x27;: &#x27;Marcels-MacBook-Air.local&#x27;, &#x27;bpython&#x27;: False, &#x27;nogui&#x27;: False, &#x27;pid_filename&#x27;: &#x27;httpserver.pid&#x27;, &#x27;extcron&#x27;: False, &#x27;runcron&#x27;: False, &#x27;run_system_tests&#x27;: False, &#x27;test&#x27;: None, &#x27;folder&#x27;: &#x27;/Users/marcelwehrle/Virtualenvs/kti/web&#x27;, &#x27;config&#x27;: &#x27;&#x27;, &#x27;minthreads&#x27;: None, &#x27;shell&#x27;: None, &#x27;run&#x27;: &#x27;&#x27;, &#x27;log_filename&#x27;: &#x27;httpserver.log&#x27;, &#x27;profiler_dir&#x27;: None, &#x27;args&#x27;: [&#x27;&#x27;], &#x27;socket_timeout&#x27;: 5, &#x27;ssl_ca_certificate&#x27;: None, &#x27;scheduler&#x27;: None, &#x27;interfaces&#x27;: None, &#x27;ssl_private_key&#x27;: &#x27;&#x27;, &#x27;scheduler_groups&#x27;: None, &#x27;password&#x27;: &#x27;&lt;ask&gt;&#x27;, &#x27;request_queue_size&#x27;: 5, &#x27;ssl_certificate&#x27;: &#x27;&#x27;, &#x27;cronjob&#x27;: False, &#x27;numthreads&#x27;: None, &#x27;quiet&#x27;: False, &#x27;import_models&#x27;: False, &#x27;timeout&#x27;: 10, &#x27;plain&#x27;: False, &#x27;nobanner&#x27;: False}&gt;</div></td></tr><tr><td style="font-weight:bold;vertical-align:top;">db_sessions</td><td style="vertical-align:top;">:</td><td><div>set([])</div></td></tr><tr><td style="font-weight:bold;vertical-align:top;">debugging</td><td style="vertical-align:top;">:</td><td><div>False</div></td></tr><tr><td style="font-weight:bold;vertical-align:top;">gluon_parent</td><td style="vertical-align:top;">:</td><td><div>/Users/marcelwehrle/Virtualenvs/kti/web</div></td></tr><tr><td style="font-weight:bold;vertical-align:top;">is_jython</td><td style="vertical-align:top;">:</td><td><div>False</div></td></tr><tr><td style="font-weight:bold;vertical-align:top;">is_pypy</td><td style="vertical-align:top;">:</td><td><div>False</div></td></tr><tr><td style="font-weight:bold;vertical-align:top;">is_source</td><td style="vertical-align:top;">:</td><td><div>True</div></td></tr><tr><td style="font-weight:bold;vertical-align:top;">local_hosts</td><td style="vertical-align:top;">:</td><td><div><table><tr><td><div>::ffff:127.0.0.1</div></td></tr><tr><td><div>::1</div></td></tr><tr><td><div>fe80::1%lo0</div></td></tr><tr><td><div>1.0.0.127.in-addr.arpa</div></td></tr><tr><td><div>127.0.0.1</div></td></tr><tr><td><div>Marcels-MacBook-Air.local</div></td></tr></table></div></td></tr><tr><td style="font-weight:bold;vertical-align:top;">web2py_version</td><td style="vertical-align:top;">:</td><td><div>2.9.5-stable+timestamp.2014.03.22.02.22.24</div></td></tr></table></div></td></tr><tr><td style="font-weight:bold;vertical-align:top;">is_https</td><td style="vertical-align:top;">:</td><td><div>False</div></td></tr><tr><td style="font-weight:bold;vertical-align:top;">is_local</td><td style="vertical-align:top;">:</td><td><div>True</div></td></tr><tr><td style="font-weight:bold;vertical-align:top;">is_restful</td><td style="vertical-align:top;">:</td><td><div>False</div></td></tr><tr><td style="font-weight:bold;vertical-align:top;">now</td><td style="vertical-align:top;">:</td><td><div>datetime.datetime(2014, 4, 14, 10, 50, 14, 87713)</div></td></tr><tr><td style="font-weight:bold;vertical-align:top;">raw_args</td><td style="vertical-align:top;">:</td><td><div></div></td></tr><tr><td style="font-weight:bold;vertical-align:top;">raw_extension</td><td style="vertical-align:top;">:</td><td><div>None</div></td></tr><tr><td style="font-weight:bold;vertical-align:top;">url</td><td style="vertical-align:top;">:</td><td><div>/KTI/default/index</div></td></tr><tr><td style="font-weight:bold;vertical-align:top;">utcnow</td><td style="vertical-align:top;">:</td><td><div>datetime.datetime(2014, 4, 14, 8, 50, 14, 87727)</div></td></tr><tr><td style="font-weight:bold;vertical-align:top;">uuid</td><td style="vertical-align:top;">:</td><td><div>KTI/127.0.0.1.2014-04-14.10-50-14.74a8a708-443d-4a1c-96a7-bf11fdac9da8</div></td></tr><tr><td style="font-weight:bold;vertical-align:top;">wsgi</td><td style="vertical-align:top;">:</td><td><div>&lt;gluon.main.LazyWSGI object at 0x114917d10&gt;</div></td></tr></table></div>'
tRp64
sS'frames'
p65
(lp66
(dp67
S'file'
p68
S'/Users/marcelwehrle/Virtualenvs/kti/web/gluon/restricted.py'
p69
sS'dump'
p70
(dp71
S'environment'
p72
S"{'A': <class 'gluon.html.A'>, 'ANY_OF': <class 'gluon.validators.ANY_OF'>, 'Auth': <class 'gluon.tools.Auth'>, 'B': <class 'gluon.html.B'>, 'BEAUTIFY': <class 'gluon.html.BEAUTIFY'>, 'BODY': <class 'gluon.html.BODY'>, 'BR': <class 'gluon.html.BR'>, 'BUTTON': <class 'gluon.html.BUTTON'>, 'CAT': <class 'gluon.html.CAT'>, 'CENTER': <class 'gluon.html.CENTER'>, ...}"
p73
sS'ccode'
p74
S'<code object <module> at 0x10e2b9bb0, file "/Use...ations/KTI/models/db_wizard_populate.py", line 1>'
p75
ssS'lnum'
p76
I220
sS'lines'
p77
(dp78
I224
S'        # do not encapsulate (obfuscate) the original RestrictedError'
p79
sI215
S'    try:'
p80
sI216
S'        if isinstance(code, types.CodeType):'
p81
sI217
S'            ccode = code'
p82
sI218
S'        else:'
p83
sI219
S'            ccode = compile2(code, layer)'
p84
sI220
S'        exec ccode in environment'
p85
sI221
S'    except HTTP:'
p86
sI222
S'        raise'
p87
sI223
S'    except RestrictedError:'
p88
ssS'call'
p89
S"(code='from gluon.contrib.populate import populate\\nif d..._user).isempty():\\n     populate(db.auth_user,10)\\n', environment={'A': <class 'gluon.html.A'>, 'ANY_OF': <class 'gluon.validators.ANY_OF'>, 'Auth': <class 'gluon.tools.Auth'>, 'B': <class 'gluon.html.B'>, 'BEAUTIFY': <class 'gluon.html.BEAUTIFY'>, 'BODY': <class 'gluon.html.BODY'>, 'BR': <class 'gluon.html.BR'>, 'BUTTON': <class 'gluon.html.BUTTON'>, 'CAT': <class 'gluon.html.CAT'>, 'CENTER': <class 'gluon.html.CENTER'>, ...}, layer='/Users/marcelwehrle/Virtualenvs/kti/web/applications/KTI/models/db_wizard_populate.py')"
p90
sS'func'
p91
S'restricted'
p92
sa(dp93
g68
S'/Users/marcelwehrle/Virtualenvs/kti/web/applications/KTI/models/db_wizard_populate.py'
p94
sg70
(dp95
S'db.auth_user'
p96
S'<Table auth_user (id,first_name,last_name,email,...stration_key,reset_password_key,registration_id)>'
p97
sS').isempty'
p98
S'undefined'
p99
sS'db'
p100
S'<DAL uri="mongodb:******@127.0.0.1/ktidasboard">'
p101
ssg76
I2
sg77
(dp102
I1
S'from gluon.contrib.populate import populate'
p103
sI2
S'if db(db.auth_user).isempty():'
p104
sI3
S'     populate(db.auth_user,10)'
p105
ssg89
S'()'
p106
sg91
S'<module>'
p107
sa(dp108
g68
S'/Users/marcelwehrle/Virtualenvs/kti/web/gluon/dal.py'
p109
sg70
(dp110
S'orderby_on_limitby'
p111
g99
sS'self'
p112
S"<Set {'_id': {'$gt': ObjectId('000000000000000000000000')}}>"
p113
sS'limitby'
p114
g99
sS'builtinFalse'
p115
S'False'
p116
sS'self.select'
p117
S"<bound method Set.select of <Set {'_id': {'$gt': ObjectId('000000000000000000000000')}}>>"
p118
ssg76
I10501
sg77
(dp119
I10496
S'                raise SyntaxError("Operator not supported: %s" % op)'
p120
sI10497
S''
sI10498
S'        return built'
p121
sI10499
S''
sI10500
S'    def isempty(self):'
p122
sI10501
S'        return not self.select(limitby=(0,1), orderby_on_limitby=False)'
p123
sI10502
S''
sI10503
S'    def count(self,distinct=None, cache=None):'
p124
sI10504
S'        db = self.db'
p125
sI10505
S'        if cache:'
p126
ssg89
S"(self=<Set {'_id': {'$gt': ObjectId('000000000000000000000000')}}>)"
p127
sg91
S'isempty'
p128
sa(dp129
g68
S'/Users/marcelwehrle/Virtualenvs/kti/web/gluon/dal.py'
p130
sg70
(dp131
S'self.query'
p132
S"<Query {'_id': {'$gt': ObjectId('000000000000000000000000')}}>"
p133
sS'adapter.select'
p134
S'<bound method MongoDBAdapter.select of <gluon.dal.MongoDBAdapter object>>'
p135
sS'fields'
p136
S'[<gluon.dal.Field object>, <gluon.dal.Field object>, <gluon.dal.Field object>, <gluon.dal.Field object>, <gluon.dal.Field object>, <gluon.dal.Field object>, <gluon.dal.Field object>, <gluon.dal.Field object>]'
p137
sS'adapter'
p138
S'<gluon.dal.MongoDBAdapter object>'
p139
sS'attributes'
p140
S"{'limitby': (0, 1), 'orderby_on_limitby': False}"
p141
sS'self'
p142
S"<Set {'_id': {'$gt': ObjectId('000000000000000000000000')}}>"
p143
ssg76
I10525
sg77
(dp144
I10528
S'        return Expression(self.db,self._select(*fields,**attributes))'
p145
sI10529
S''
sI10520
S"                                    attributes.get('join',None),"
p146
sI10521
S"                                    attributes.get('left',None),"
p147
sI10522
S"                                    attributes.get('orderby',None),"
p148
sI10523
S"                                    attributes.get('groupby',None))"
p149
sI10524
S'        fields = adapter.expand_all(fields, tablenames)'
p150
sI10525
S'        return adapter.select(self.query,fields,attributes)'
p151
sI10526
S''
sI10527
S'    def nested_select(self,*fields,**attributes):'
p152
ssg89
S"(self=<Set {'_id': {'$gt': ObjectId('000000000000000000000000')}}>, *fields=[<gluon.dal.Field object>, <gluon.dal.Field object>, <gluon.dal.Field object>, <gluon.dal.Field object>, <gluon.dal.Field object>, <gluon.dal.Field object>, <gluon.dal.Field object>, <gluon.dal.Field object>], **attributes={'limitby': (0, 1), 'orderby_on_limitby': False})"
p153
sg91
S'select'
p154
sa(dp155
g68
S'/Users/marcelwehrle/Virtualenvs/kti/web/gluon/dal.py'
p156
sg70
(dp157
S'record'
p158
g99
sS'mongo_list_dicts'
p159
S'<pymongo.cursor.Cursor object>'
p160
ssg76
I5865
sg77
(dp161
I5860
S'            if fieldname == "_id":'
p162
sI5861
S'                # Mongodb reserved uuid key'
p163
sI5862
S'                field.name = "id"'
p164
sI5863
S'            newnames.append(".".join((tablename, field.name)))'
p165
sI5864
S''
sI5865
S'        for record in mongo_list_dicts:'
p166
sI5866
S'            row=[]'
p167
sI5867
S'            for colname in colnames:'
p168
sI5868
S'                tablename, fieldname = colname.split(".")'
p169
sI5869
S'                # switch to Mongo _id uuids for retrieving'
p170
ssg89
S"(self=<gluon.dal.MongoDBAdapter object>, query=<Query {'_id': {'$gt': ObjectId('000000000000000000000000')}}>, fields=[<gluon.dal.Field object>, <gluon.dal.Field object>, <gluon.dal.Field object>, <gluon.dal.Field object>, <gluon.dal.Field object>, <gluon.dal.Field object>, <gluon.dal.Field object>, <gluon.dal.Field object>], attributes={'limitby': (0, 1), 'orderby_on_limitby': False}, count=False, snapshot=False)"
p171
sg91
g154
sa(dp172
g68
S'/usr/local/lib/python2.7/site-packages/pymongo/cursor.py'
p173
sg70
(dp174
S'builtinlen'
p175
S'<built-in function len>'
p176
sS'self'
p177
S'<pymongo.cursor.Cursor object>'
p178
sS'self.__data'
p179
g99
sS'self._refresh'
p180
S'<bound method Cursor._refresh of <pymongo.cursor.Cursor object>>'
p181
ssg76
I904
sg77
(dp182
I899
S''
sI900
S'    def next(self):'
p183
sI901
S'        if self.__empty:'
p184
sI902
S'            raise StopIteration'
p185
sI903
S'        db = self.__collection.database'
p186
sI904
S'        if len(self.__data) or self._refresh():'
p187
sI905
S'            if self.__manipulate:'
p188
sI906
S'                return db._fix_outgoing(self.__data.popleft(),'
p189
sI907
S'                                        self.__collection)'
p190
sI908
S'            else:'
p191
ssg89
S'(self=<pymongo.cursor.Cursor object>)'
p192
sg91
S'next'
p193
sa(dp194
g68
S'/usr/local/lib/python2.7/site-packages/pymongo/cursor.py'
p195
sg70
(dp196
S'self'
p197
S'<pymongo.cursor.Cursor object>'
p198
sS'self.__uuid_subtype'
p199
g99
ssg76
I848
sg77
(dp200
I843
S'            self.__send_message('
p201
sI844
S'                message.query(self.__query_options(),'
p202
sI845
S'                              self.__collection.full_name,'
p203
sI846
S'                              self.__skip, ntoreturn,'
p204
sI847
S'                              self.__query_spec(), self.__fields,'
p205
sI848
S'                              self.__uuid_subtype))'
p206
sI849
S'            if not self.__id:'
p207
sI850
S'                self.__killed = True'
p208
sI851
S'        elif self.__id:  # Get More'
p209
sI852
S'            if self.__limit:'
p210
ssg89
S'(self=<pymongo.cursor.Cursor object>)'
p211
sg91
S'_refresh'
p212
sa(dp213
g68
S'/usr/local/lib/python2.7/site-packages/pymongo/cursor.py'
p214
sg70
(dp215
S'res'
p216
g99
sS'message'
p217
S"(60935238, '\\xdb\\x00\\x00\\x00F\\xcc\\xa1\\x03\\x00\\x00\\x00\\x00\\xd4\\x07\\x00\\x00\\x00\\x00\\x00\\x00ktidasboard.auth_user\\x00\\x00\\x00\\x00\\x00\\x01\\x00...\\x00\\x00\\x00\\x10reset_password_key\\x00\\x01\\x00\\x00\\x00\\x10registration_id\\x00\\x01\\x00\\x00\\x00\\x00', 137)"
p218
sS'client'
p219
S'MongoClient(None, None)'
p220
sS'kwargs'
p221
S"{'_must_use_master': False, 'exhaust': False, 'read_preference': 0, 'secondary_acceptable_latency_ms': 15.0, 'tag_sets': [{}]}"
p222
sS'client._send_message_with_response'
p223
S'<bound method MongoClient._send_message_with_response of MongoClient(None, None)>'
p224
ssg76
I782
sg77
(dp225
I777
S'            if self.__connection_id is not None:'
p226
sI778
S'                kwargs["_connection_to_use"] = self.__connection_id'
p227
sI779
S'            kwargs.update(self.__kwargs)'
p228
sI780
S''
sI781
S'            try:'
p229
sI782
S'                res = client._send_message_with_response(message, **kwargs)'
p230
sI783
S'                self.__connection_id, (response, sock, pool) = res'
p231
sI784
S'                if self.__exhaust:'
p232
sI785
S'                    self.__exhaust_mgr = _SocketManager(sock, pool)'
p233
sI786
S'            except AutoReconnect:'
p234
ssg89
S"(self=<pymongo.cursor.Cursor object>, message=(60935238, '\\xdb\\x00\\x00\\x00F\\xcc\\xa1\\x03\\x00\\x00\\x00\\x00\\xd4\\x07\\x00\\x00\\x00\\x00\\x00\\x00ktidasboard.auth_user\\x00\\x00\\x00\\x00\\x00\\x01\\x00...\\x00\\x00\\x00\\x10reset_password_key\\x00\\x01\\x00\\x00\\x00\\x10registration_id\\x00\\x01\\x00\\x00\\x00\\x00', 137))"
p235
sg91
S'__send_message'
p236
sa(dp237
g68
S'/usr/local/lib/python2.7/site-packages/pymongo/mongo_client.py'
p238
sg70
(dp239
S'self'
p240
S'MongoClient(None, None)'
p241
sS'self.__socket'
p242
S"Database(MongoClient(None, None), u'__socket')"
p243
sS'sock_info'
p244
g99
ssg76
I1036
sg77
(dp245
I1031
S'        Sends the given message and returns the response.'
p246
sI1032
S''
sI1033
S'        :Parameters:'
p247
sI1034
S'          - `message`: (request_id, data) pair making up the message to send'
p248
sI1035
S'        """'
p249
sI1036
S'        sock_info = self.__socket()'
p250
sI1037
S"        exhaust = kwargs.get('exhaust')"
p251
sI1038
S'        try:'
p252
sI1039
S'            try:'
p253
sI1040
S'                if not exhaust and "network_timeout" in kwargs:'
p254
ssg89
S"(self=MongoClient(None, None), message=(60935238, '\\xdb\\x00\\x00\\x00F\\xcc\\xa1\\x03\\x00\\x00\\x00\\x00\\xd4\\x07\\x00\\x00\\x00\\x00\\x00\\x00ktidasboard.auth_user\\x00\\x00\\x00\\x00\\x00\\x01\\x00...\\x00\\x00\\x00\\x10reset_password_key\\x00\\x01\\x00\\x00\\x00\\x10registration_id\\x00\\x01\\x00\\x00\\x00\\x00', 137), _must_use_master=False, **kwargs={'exhaust': False, 'read_preference': 0, 'secondary_acceptable_latency_ms': 15.0, 'tag_sets': [{}]})"
p255
sg91
S'_send_message_with_response'
p256
sa(dp257
g68
S'/usr/local/lib/python2.7/site-packages/pymongo/mongo_client.py'
p258
sg70
(dp259
S'builtinstr'
p260
S"<type 'str'>"
p261
sS'host_details'
p262
S"'127.0.0.1:27017:'"
p263
sS'why'
p264
S"error(61, 'Connection refused')"
p265
ssg76
I773
sg77
(dp266
I768
S"            if host.endswith('.sock'):"
p267
sI769
S'                host_details = "%s:" % host'
p268
sI770
S'            else:'
p269
sI771
S'                host_details = "%s:%d:" % (host, port)'
p270
sI772
S'            raise AutoReconnect("could not connect to "'
p271
sI773
S'                                "%s %s" % (host_details, str(why)))'
p272
sI774
S'        try:'
p273
sI775
S'            self.__check_auth(sock_info)'
p274
sI776
S'        except OperationFailure:'
p275
sI777
S'            self.__pool.maybe_return_socket(sock_info)'
p276
ssg89
S'(self=MongoClient(None, None))'
p277
sg91
S'__socket'
p278
sasS'pyver'
p279
S'Python 2.7.5: /Users/marcelwehrle/Virtualenvs/kti/bin/python (prefix: /Users/marcelwehrle/Virtualenvs/kti)'
p280
sS'session'
p281
g63
(S's\x1a\x00\x00\x00<div><table></table></div>'
tRp282
sS'etype'
p283
S"<class 'pymongo.errors.AutoReconnect'>"
p284
sS'date'
p285
S'Mon Apr 14 10:50:14 2014'
p286
sS'response'
p287
g63
(S's\x9a\x15\x00\x00<div><table><tr><td style="font-weight:bold;vertical-align:top;">body</td><td style="vertical-align:top;">:</td><td><div>&lt;cStringIO.StringO object at 0x115056260&gt;</div></td></tr><tr><td style="font-weight:bold;vertical-align:top;">cookies</td><td style="vertical-align:top;">:</td><td><div><table><tr><td style="font-weight:bold;vertical-align:top;">session_id_kti</td><td style="vertical-align:top;">:</td><td><div>127.0.0.1-549d3d2f-f779-4e19-b1cc-1f2bdeee1703<table><tr><td style="font-weight:bold;vertical-align:top;">comment</td><td style="vertical-align:top;">:</td><td><div></div></td></tr><tr><td style="font-weight:bold;vertical-align:top;">domain</td><td style="vertical-align:top;">:</td><td><div></div></td></tr><tr><td style="font-weight:bold;vertical-align:top;">expires</td><td style="vertical-align:top;">:</td><td><div></div></td></tr><tr><td style="font-weight:bold;vertical-align:top;">httponly</td><td style="vertical-align:top;">:</td><td><div></div></td></tr><tr><td style="font-weight:bold;vertical-align:top;">max-age</td><td style="vertical-align:top;">:</td><td><div></div></td></tr><tr><td style="font-weight:bold;vertical-align:top;">path</td><td style="vertical-align:top;">:</td><td><div>/</div></td></tr><tr><td style="font-weight:bold;vertical-align:top;">secure</td><td style="vertical-align:top;">:</td><td><div></div></td></tr><tr><td style="font-weight:bold;vertical-align:top;">version</td><td style="vertical-align:top;">:</td><td><div></div></td></tr></table></div></td></tr></table></div></td></tr><tr><td style="font-weight:bold;vertical-align:top;">delimiters</td><td style="vertical-align:top;">:</td><td><div><table><tr><td><div>{{</div></td></tr><tr><td><div>}}</div></td></tr></table></div></td></tr><tr><td style="font-weight:bold;vertical-align:top;">files</td><td style="vertical-align:top;">:</td><td><div><table></table></div></td></tr><tr><td style="font-weight:bold;vertical-align:top;">flash</td><td style="vertical-align:top;">:</td><td><div></div></td></tr><tr><td style="font-weight:bold;vertical-align:top;">generic_patterns</td><td style="vertical-align:top;">:</td><td><div><table><tr><td><div>*</div></td></tr></table></div></td></tr><tr><td style="font-weight:bold;vertical-align:top;">headers</td><td style="vertical-align:top;">:</td><td><div><table><tr><td style="font-weight:bold;vertical-align:top;">X-Powered-By</td><td style="vertical-align:top;">:</td><td><div>web2py</div></td></tr></table></div></td></tr><tr><td style="font-weight:bold;vertical-align:top;">menu</td><td style="vertical-align:top;">:</td><td><div><table></table></div></td></tr><tr><td style="font-weight:bold;vertical-align:top;">meta</td><td style="vertical-align:top;">:</td><td><div><table></table></div></td></tr><tr><td style="font-weight:bold;vertical-align:top;">models_to_run</td><td style="vertical-align:top;">:</td><td><div><table><tr><td><div>^\\w+\\.py$</div></td></tr><tr><td><div>^default/\\w+\\.py$</div></td></tr><tr><td><div>^default/index/\\w+\\.py$</div></td></tr></table></div></td></tr><tr><td style="font-weight:bold;vertical-align:top;">postprocessing</td><td style="vertical-align:top;">:</td><td><div><table></table></div></td></tr><tr><td style="font-weight:bold;vertical-align:top;">session_client</td><td style="vertical-align:top;">:</td><td><div>127.0.0.1</div></td></tr><tr><td style="font-weight:bold;vertical-align:top;">session_cookie_compression_level</td><td style="vertical-align:top;">:</td><td><div>None</div></td></tr><tr><td style="font-weight:bold;vertical-align:top;">session_cookie_expires</td><td style="vertical-align:top;">:</td><td><div>None</div></td></tr><tr><td style="font-weight:bold;vertical-align:top;">session_cookie_key</td><td style="vertical-align:top;">:</td><td><div>None</div></td></tr><tr><td style="font-weight:bold;vertical-align:top;">session_data_name</td><td style="vertical-align:top;">:</td><td><div>session_data_kti</div></td></tr><tr><td style="font-weight:bold;vertical-align:top;">session_file</td><td style="vertical-align:top;">:</td><td><div>None</div></td></tr><tr><td style="font-weight:bold;vertical-align:top;">session_filename</td><td style="vertical-align:top;">:</td><td><div>/Users/marcelwehrle/Virtualenvs/kti/web/applications/KTI/sessions/127.0.0.1-549d3d2f-f779-4e19-b1cc-1f2bdeee1703</div></td></tr><tr><td style="font-weight:bold;vertical-align:top;">session_hash</td><td style="vertical-align:top;">:</td><td><div>106f4c22ca06cc343e42b73a0d8492f6</div></td></tr><tr><td style="font-weight:bold;vertical-align:top;">session_id</td><td style="vertical-align:top;">:</td><td><div>127.0.0.1-549d3d2f-f779-4e19-b1cc-1f2bdeee1703</div></td></tr><tr><td style="font-weight:bold;vertical-align:top;">session_id_name</td><td style="vertical-align:top;">:</td><td><div>session_id_kti</div></td></tr><tr><td style="font-weight:bold;vertical-align:top;">session_masterapp</td><td style="vertical-align:top;">:</td><td><div>KTI</div></td></tr><tr><td style="font-weight:bold;vertical-align:top;">session_new</td><td style="vertical-align:top;">:</td><td><div>True</div></td></tr><tr><td style="font-weight:bold;vertical-align:top;">session_storage_type</td><td style="vertical-align:top;">:</td><td><div>file</div></td></tr><tr><td style="font-weight:bold;vertical-align:top;">status</td><td style="vertical-align:top;">:</td><td><div>200</div></td></tr><tr><td style="font-weight:bold;vertical-align:top;">view</td><td style="vertical-align:top;">:</td><td><div>default/index.html</div></td></tr></table></div>'
tRp288
sS'locals'
p289
(dp290
S'port'
p291
S'27017'
p292
sS'host_details'
p293
S"'127.0.0.1:27017:'"
p294
sS'self'
p295
S'MongoClient(None, None)'
p296
sS'host'
p297
S"'127.0.0.1'"
p298
sS'why'
p299
S"error(61, 'Connection refused')"
p300
sssS'traceback'
p301
S'Traceback (most recent call last):\n  File "/Users/marcelwehrle/Virtualenvs/kti/web/gluon/restricted.py", line 220, in restricted\n    exec ccode in environment\n  File "/Users/marcelwehrle/Virtualenvs/kti/web/applications/KTI/models/db_wizard_populate.py", line 2, in <module>\n    if db(db.auth_user).isempty():\n  File "/Users/marcelwehrle/Virtualenvs/kti/web/gluon/dal.py", line 10501, in isempty\n    return not self.select(limitby=(0,1), orderby_on_limitby=False)\n  File "/Users/marcelwehrle/Virtualenvs/kti/web/gluon/dal.py", line 10525, in select\n    return adapter.select(self.query,fields,attributes)\n  File "/Users/marcelwehrle/Virtualenvs/kti/web/gluon/dal.py", line 5865, in select\n    for record in mongo_list_dicts:\n  File "/usr/local/lib/python2.7/site-packages/pymongo/cursor.py", line 904, in next\n    if len(self.__data) or self._refresh():\n  File "/usr/local/lib/python2.7/site-packages/pymongo/cursor.py", line 848, in _refresh\n    self.__uuid_subtype))\n  File "/usr/local/lib/python2.7/site-packages/pymongo/cursor.py", line 782, in __send_message\n    res = client._send_message_with_response(message, **kwargs)\n  File "/usr/local/lib/python2.7/site-packages/pymongo/mongo_client.py", line 1036, in _send_message_with_response\n    sock_info = self.__socket()\n  File "/usr/local/lib/python2.7/site-packages/pymongo/mongo_client.py", line 773, in __socket\n    "%s %s" % (host_details, str(why)))\nAutoReconnect: could not connect to 127.0.0.1:27017: [Errno 61] Connection refused\n'
p302
s.