(dp1
S'output'
p2
S"<type 'exceptions.NameError'> name 'is_mobile' is not defined"
p3
sS'layer'
p4
S'/Users/marcelwehrle/Virtualenvs/kti/web/applications/KTI/views/default/index.html'
p5
sS'code'
p6
S'response.write(\'<!--[if HTML5]><![endif]-->\\n<!DOCTYPE html>\\n<!-- paulirish.com/2008/conditional-stylesheets-vs-css-hacks-answer-neither/ -->\\n<!--[if lt IE 7]><html class="ie ie6 ie-lte9 ie-lte8 ie-lte7 no-js" lang="\', escape=False)\nresponse.write(T.accepted_language or \'en\')\nresponse.write(\'"> <![endif]-->\\n<!--[if IE 7]><html class="ie ie7 ie-lte9 ie-lte8 ie-lte7 no-js" lang="\', escape=False)\nresponse.write(T.accepted_language or \'en\')\nresponse.write(\'"> <![endif]-->\\n<!--[if IE 8]><html class="ie ie8 ie-lte9 ie-lte8 no-js" lang="\', escape=False)\nresponse.write(T.accepted_language or \'en\')\nresponse.write(\'"> <![endif]-->\\n<!--[if IE 9]><html class="ie9 ie-lte9 no-js" lang="\', escape=False)\nresponse.write(T.accepted_language or \'en\')\nresponse.write(\'"> <![endif]-->\\n<!--[if (gt IE 9)|!(IE)]><!-->\\n<html class="no-js" lang="\', escape=False)\nresponse.write(T.accepted_language or \'en\')\nresponse.write(\'">\\n\\t<!--<![endif]-->\\n\\t<head>\\n\\t\\t<title>\', escape=False)\nresponse.write(response.title or request.application)\nresponse.write(\'</title>\\n\\t\\t<!--[if !HTML5]>\\n\\t\\t<meta http-equiv="X-UA-Compatible" content="IE=edge\', escape=False)\nresponse.write(not request.is_local and \',chrome=1\' or \'\')\nresponse.write(\'">\\n\\t\\t<![endif]-->\\n\\t\\t<!-- www.phpied.com/conditional-comments-block-downloads/ -->\\n\\t\\t<!-- Always force latest IE rendering engine\\n\\t\\t(even in intranet) & Chrome Frame\\n\\t\\tRemove this if you use the .htaccess -->\\n\\n\\t\\t<meta charset="utf-8" />\\n\\n\\t\\t<!-- http://dev.w3.org/html5/markup/meta.name.html -->\\n\\t\\t<meta name="application-name" content="\', escape=False)\nresponse.write(request.application)\nresponse.write(\'" />\\n\\n\\t\\t<!-- Speaking of Google, don\\\'t forget to set your site up:\\n\\t\\thttp://google.com/webmasters -->\\n\\t\\t<meta name="google-site-verification" content="" />\\n\\n\\t\\t<!--  Mobile Viewport Fix\\n\\t\\tj.mp/mobileviewport & davidbcalhoun.com/2010/viewport-metatag\\n\\t\\tdevice-width: Occupy full width of the screen in its current orientation\\n\\t\\tinitial-scale = 1.0 retains dimensions instead of zooming out if page height > device height\\n\\t\\tuser-scalable = yes allows the user to zoom in -->\\n\\t\\t<meta name="viewport" content="width=device-width, initial-scale=1.0" />\\n\\n\\t\\t<link rel="shortcut icon" href="\', escape=False)\nresponse.write(URL(\'static\',\'images/favicon.ico\'))\nresponse.write(\'" type="image/x-icon">\\n\\t\\t<link rel="apple-touch-icon" href="\', escape=False)\nresponse.write(URL(\'static\',\'images/favicon.png\'))\nresponse.write(\'">\\n\\n\\t\\t<!-- All JavaScript at the bottom, except for Modernizr which enables\\n\\t\\tHTML5 elements & feature detects -->\\n\\t\\t<script src="\', escape=False)\nresponse.write(URL(\'static\',\'components/plugins/ajaxify/script.min.js\'))\nresponse.write(\'"></script>\\n\\n\\t\\t<!-- include stylesheets -->\\n\\t\\t\', escape=False)\nresponse.files.insert(0,URL(\'static\',\'css/style.css\'))\nresponse.write(\'\\n\\n\\t\\t\', escape=False)\nresponse.write(\'<script type="text/javascript"><!--\\n    // These variables are used by the web2py_ajax_init function in web2py_ajax.js (which is loaded below).\\n    var w2p_ajax_confirm_message = "\', escape=False)\nresponse.write(T(\'Are you sure you want to delete this object?\'))\nresponse.write(\'";\\n    var w2p_ajax_disable_with_message = "\', escape=False)\nresponse.write(T(\'Working...\'))\nresponse.write(\'";\\n    var w2p_ajax_date_format = "\', escape=False)\nresponse.write(T(\'%Y-%m-%d\'))\nresponse.write(\'";\\n    var w2p_ajax_datetime_format = "\', escape=False)\nresponse.write(T(\'%Y-%m-%d %H:%M:%S\'))\nresponse.write(\'";\\n    var ajax_error_500 = \\\'\', escape=False)\nresponse.write(T.M(\'An error occured, please [[reload %s]] the page\') % URL(args=request.args, vars=request.get_vars))\nresponse.write(\'\\\'\\n    //--></script>\\n    <script>\\n    var App = {};\\n    </script>\\n    <script data-id="App.Scripts">\\n    App.Scripts = {\\n        /* CORE scripts always load first; */\\n        core: [\\n            "\', escape=False)\nresponse.write(URL(\'static\',\'components/library/jquery/jquery.min.js\'))\nresponse.write(\'",\\n            "\', escape=False)\nresponse.write(URL(\'static\',\'components/library/modernizr/modernizr.js\'))\nresponse.write(\'",\\n        ],\\n        /* PLUGINS_DEPENDENCY always load after CORE but before PLUGINS; */\\n        plugins_dependency: [\\n            "\', escape=False)\nresponse.write(URL(\'static\',\'components/library/bootstrap/js/bootstrap.min.js\'))\nresponse.write(\'",\\n            "\', escape=False)\nresponse.write(URL(\'static\',\'components/library/jquery/jquery-migrate.min.js\'))\nresponse.write(\'",\\n            "\', escape=False)\nresponse.write(URL(\'static\',\'components/modules/admin/maps/vector/assets/lib/jquery-jvectormap-1.2.2.min.js\'))\nresponse.write(\'",\\n            "\', escape=False)\nresponse.write(URL(\'static\',\'components/modules/admin/charts/flot/assets/lib/jquery.flot.js\'))\nresponse.write(\'",\\n        ],\\n        /* PLUGINS always load after CORE and PLUGINS_DEPENDENCY, but before the BUNDLE / initialization scripts; */\\n        plugins: [\\n            "\', escape=False)\nresponse.write(URL(\'static\',\'components/plugins/nicescroll/jquery.nicescroll.min.js\'))\nresponse.write(\'",\\n            "\', escape=False)\nresponse.write(URL(\'static\',\'components/plugins/breakpoints/breakpoints.js\'))\nresponse.write(\'",\\n            "\', escape=False)\nresponse.write(URL(\'static\',\'components/plugins/ajaxify/davis.min.js\'))\nresponse.write(\'",\\n            "\', escape=False)\nresponse.write(URL(\'static\',\'components/plugins/ajaxify/jquery.lazyjaxdavis.min.js\'))\nresponse.write(\'",\\n            "\', escape=False)\nresponse.write(URL(\'static\',\'components/plugins/preload/pace/pace.min.js\'))\nresponse.write(\'",\\n           // "\', escape=False)\nresponse.write(URL(\'static\',\'components/modules/admin/charts/flot/assets/lib/jquery.flot.resize.js\'))\nresponse.write(\'",\\n            //"\', escape=False)\nresponse.write(URL(\'static\',\'components/modules/admin/charts/flot/assets/lib/plugins/jquery.flot.tooltip.min.js\'))\nresponse.write(\'",\\n            //"\', escape=False)\nresponse.write(URL(\'static\',\'components/modules/admin/charts/flot/assets/custom/js/flotcharts.common.js\'))\nresponse.write(\'",\\n            "\', escape=False)\nresponse.write(URL(\'static\',\'components/modules/admin/charts/easy-pie/assets/lib/js/jquery.easy-pie-chart.js\'))\nresponse.write(\'",\\n            "\', escape=False)\nresponse.write(URL(\'static\',\'components/modules/admin/maps/vector/assets/lib/maps/jquery-jvectormap-world-mill-en.js\'))\nresponse.write(\'",\\n            "\', escape=False)\nresponse.write(URL(\'static\',\'components/plugins/less-js/less.min.js\'))\nresponse.write(\'",\\n            "\', escape=False)\nresponse.write(URL(\'static\',\'components/modules/admin/charts/flot/assets/lib/excanvas.js\'))\nresponse.write(\'",\\n            "\', escape=False)\nresponse.write(URL(\'static\',\'components/plugins/browser/ie/ie.prototype.polyfill.js\'))\nresponse.write(\'"\\n        ],\\n        /* The initialization scripts always load last and are automatically and dynamically loaded when AJAX navigation is enabled; */\\n        bundle: [\\n        \\t"\', escape=False)\nresponse.write(URL(\'static\',\'components/plugins/ajaxify/ajaxify.init.js\'))\nresponse.write(\'",\\n        \\t"\', escape=False)\nresponse.write(URL(\'static\',\'components/plugins/preload/pace/preload.pace.init.js\'))\nresponse.write(\'",\\n        \\t"\', escape=False)\nresponse.write(URL(\'static\',\'components/core/js/animations.init.js\'))\nresponse.write(\'",\\n        \\t"\', escape=False)\nresponse.write(URL(\'static\',\'components/modules/admin/charts/flot/assets/custom/js/flotchart-line-2.init.js\'))\nresponse.write(\'",\\n        \\t"\', escape=False)\nresponse.write(URL(\'static\',\'components/modules/admin/charts/flot/assets/custom/js/flotchart-mixed-1.init.js\'))\nresponse.write(\'",\\n        \\t"\', escape=False)\nresponse.write(URL(\'static\',\'components/modules/admin/charts/flot/assets/custom/js/flotchart-bars-horizontal.init.js\'))\nresponse.write(\'",\\n        \\t"\', escape=False)\nresponse.write(URL(\'static\',\'components/modules/admin/charts/easy-pie/assets/custom/easy-pie.init.js\'))\nresponse.write(\'",\\n        \\t"\', escape=False)\nresponse.write(URL(\'static\',\'components/modules/admin/charts/sparkline/sparkline.init.js\'))\nresponse.write(\'",\\n        \\t"\', escape=False)\nresponse.write(URL(\'static\',\'components/modules/admin/maps/vector/assets/custom/maps-vector.world-map-markers.init.js\'))\nresponse.write(\'",\\n        \\t"\', escape=False)\nresponse.write(URL(\'static\',\'components/core/js/sidebar.main.init.js\'))\nresponse.write(\'",\\n        \\t"\', escape=False)\nresponse.write(URL(\'static\',\'components/core/js/sidebar.discover.init.js\'))\nresponse.write(\'",\\n        \\t"\', escape=False)\nresponse.write(URL(\'static\',\'components/core/js/core.init.js\'))\nresponse.write(\'"\\n        ]\\n    };\\n    </script>\\n    <script>\\n    $script(App.Scripts.core, \\\'core\\\');\\n    $script.ready([\\\'core\\\'], function()\\n    {\\n        $script(App.Scripts.plugins_dependency, \\\'plugins_dependency\\\');\\n    });\\n    $script.ready([\\\'core\\\', \\\'plugins_dependency\\\'], function()\\n    {\\n        $script(App.Scripts.plugins, \\\'plugins\\\');\\n    });\\n    $script.ready([\\\'core\\\', \\\'plugins_dependency\\\', \\\'plugins\\\'], function()\\n    {\\n        $script(App.Scripts.bundle, \\\'bundle\\\');\\n    });\\n    </script>\\n    <script>\\n    if ( /*@cc_on!@*/ false && document.documentMode === 10)\\n    {\\n        document.documentElement.className += \\\' ie ie10\\\';\\n    }\\n    </script>\\n\', escape=False)\nresponse.files.insert(0,URL(\'static\',\'js/jquery.js\'))\nresponse.files.insert(3,URL(\'static\',\'js/web2py.js\'))\nresponse.include_meta()\nresponse.include_files()\nresponse.write(\'\\n\', escape=False)\nresponse.write(\'\\n\\n\\t\\t\', escape=False)\n# using sidebars need to know what sidebar you want to use\nleft_sidebar_enabled = globals().get(\'left_sidebar_enabled\',False)\nright_sidebar_enabled = globals().get(\'right_sidebar_enabled\',False)\nmiddle_columns = {0:\'span12\',1:\'span9\',2:\'span6\'}[\n(left_sidebar_enabled and 1 or 0)+(right_sidebar_enabled and 1 or 0)]\nresponse.write(\'\\n\\n\\t\\t<!-- uncomment here to load jquery-ui\\n\\t\\t<link rel="stylesheet" href="http://ajax.googleapis.com/ajax/libs/jqueryui/1.10.3/themes/ui-lightness/jquery-ui.css" type="text/css" media="all" />\\n\\t\\t<script src="http://ajax.googleapis.com/ajax/libs/jqueryui/1.10.3/jquery-ui.min.js" type="text/javascript"></script>\\n\\t\\tuncomment to load jquery-ui //-->\\n\\t\\t<noscript>\\n\\t\\t\\t<link href="\', escape=False)\nresponse.write(URL(\'static\', \'css/web2py_bootstrap_nojs.css\'))\nresponse.write(\'" rel="stylesheet" type="text/css" />\\n\\t\\t</noscript>\\n\\t\\t\', escape=False)\nresponse.write(\'\\n\\t</head>\\n\\t<body class="scripts-async">\\n\\t\\t<!-- Main Container Fluid -->\\n\\t\\t<div class="container-fluid menu-hidden">\\n\\t\\t\\t<!-- Sidebar Menu -->\\n\\t\\t\\t<div id="menu" class="hidden-print hidden-xs ">\\n\\t\\t\\t\\t<div id="sidebar-discover-wrapper">\\n\\t\\t\\t\\t\\t<ul class="list-unstyled">\\n\\t\\t\\t\\t\\t\\t<li class="active">\\n\\t\\t\\t\\t\\t\\t\\t<a href="#sidebar-discover-social" class="glyphicons home " data-toggle="sidebar-discover"> <span class="badge pull-right badge-primary hidden-md">7</span><i></i> <span>Overview</span> </a>\\n\\t\\t\\t\\t\\t\\t\\t<div id="sidebar-discover-social" class="sidebar-discover-menu">\\n\\t\\t\\t\\t\\t\\t\\t\\t<div class="innerAll text-center border-bottom text-muted-dark">\\n\\t\\t\\t\\t\\t\\t\\t\\t\\t<strong>Overview</strong>\\n\\t\\t\\t\\t\\t\\t\\t\\t\\t<button class="btn btn-xs btn-default close-discover">\\n\\t\\t\\t\\t\\t\\t\\t\\t\\t\\t<i class="fa fa-fw fa-times"></i>\\n\\t\\t\\t\\t\\t\\t\\t\\t\\t</button>\\n\\t\\t\\t\\t\\t\\t\\t\\t</div>\\n\\t\\t\\t\\t\\t\\t\\t\\t<ul class="animated fadeIn">\\n\\t\\t\\t\\t\\t\\t\\t\\t\\t<li class="active">\\n\\t\\t\\t\\t\\t\\t\\t\\t\\t\\t<a href="index.html?lang=en">Analytics</a>\\n\\t\\t\\t\\t\\t\\t\\t\\t\\t</li>\\n\\t\\t\\t\\t\\t\\t\\t\\t\\t<li>\\n\\t\\t\\t\\t\\t\\t\\t\\t\\t\\t<a href="dashboard_users.html?lang=en">Users</a>\\n\\t\\t\\t\\t\\t\\t\\t\\t\\t</li>\\n\\t\\t\\t\\t\\t\\t\\t\\t\\t<li>\\n\\t\\t\\t\\t\\t\\t\\t\\t\\t\\t<a href="medical_overview.html?lang=en">Medical</a>\\n\\t\\t\\t\\t\\t\\t\\t\\t\\t</li>\\n\\t\\t\\t\\t\\t\\t\\t\\t\\t<li>\\n\\t\\t\\t\\t\\t\\t\\t\\t\\t\\t<a href="finances.html?lang=en">Financial</a>\\n\\t\\t\\t\\t\\t\\t\\t\\t\\t</li>\\n\\t\\t\\t\\t\\t\\t\\t\\t\\t<li>\\n\\t\\t\\t\\t\\t\\t\\t\\t\\t\\t<a href="courses_2.html?lang=en">Learning</a>\\n\\t\\t\\t\\t\\t\\t\\t\\t\\t</li>\\n\\t\\t\\t\\t\\t\\t\\t\\t</ul>\\n\\t\\t\\t\\t\\t\\t\\t</div>\\n\\t\\t\\t\\t\\t\\t</li>\\n\\t\\t\\t\\t\\t\\t<li>\\n\\t\\t\\t\\t\\t\\t\\t<a href="#sidebar-discover-media" class="glyphicons picture" data-toggle="sidebar-discover"> <span class="badge pull-right badge-primary hidden-md">2</span><i></i> <span>Media</span> </a>\\n\\t\\t\\t\\t\\t\\t\\t<div id="sidebar-discover-media" class="sidebar-discover-menu">\\n\\t\\t\\t\\t\\t\\t\\t\\t<div class="innerAll text-center border-bottom text-muted-dark">\\n\\t\\t\\t\\t\\t\\t\\t\\t\\t<strong>Media</strong>\\n\\t\\t\\t\\t\\t\\t\\t\\t\\t<button class="btn btn-xs btn-default close-discover">\\n\\t\\t\\t\\t\\t\\t\\t\\t\\t\\t<i class="fa fa-fw fa-times"></i>\\n\\t\\t\\t\\t\\t\\t\\t\\t\\t</button>\\n\\t\\t\\t\\t\\t\\t\\t\\t</div>\\n\\t\\t\\t\\t\\t\\t\\t\\t<ul class="animated fadeIn">\\n\\t\\t\\t\\t\\t\\t\\t\\t\\t<li>\\n\\t\\t\\t\\t\\t\\t\\t\\t\\t\\t<a href="gallery_video.html?lang=en"><i class="fa fa-video-camera"></i> Video Gallery</a>\\n\\t\\t\\t\\t\\t\\t\\t\\t\\t</li>\\n\\t\\t\\t\\t\\t\\t\\t\\t\\t<li>\\n\\t\\t\\t\\t\\t\\t\\t\\t\\t\\t<a href="gallery.html?lang=en"><i class="fa fa-camera"></i> Photo Gallery</a>\\n\\t\\t\\t\\t\\t\\t\\t\\t\\t</li>\\n\\t\\t\\t\\t\\t\\t\\t\\t</ul>\\n\\t\\t\\t\\t\\t\\t\\t</div>\\n\\t\\t\\t\\t\\t\\t</li>\\n\\t\\t\\t\\t\\t\\t<li>\\n\\t\\t\\t\\t\\t\\t\\t<a href="#sidebar-discover-email" class="glyphicons envelope" data-toggle="sidebar-discover"><i></i><span>Email</span></a>\\n\\t\\t\\t\\t\\t\\t\\t<div id="sidebar-discover-email" class="sidebar-discover-menu">\\n\\t\\t\\t\\t\\t\\t\\t\\t<div class="innerAll text-center border-bottom text-muted-dark">\\n\\t\\t\\t\\t\\t\\t\\t\\t\\t<strong>Email</strong>\\n\\t\\t\\t\\t\\t\\t\\t\\t\\t<button class="btn btn-xs btn-default close-discover">\\n\\t\\t\\t\\t\\t\\t\\t\\t\\t\\t<i class="fa fa-fw fa-times"></i>\\n\\t\\t\\t\\t\\t\\t\\t\\t\\t</button>\\n\\t\\t\\t\\t\\t\\t\\t\\t</div>\\n\\t\\t\\t\\t\\t\\t\\t\\t<ul class="animated fadeIn">\\n\\t\\t\\t\\t\\t\\t\\t\\t\\t<li>\\n\\t\\t\\t\\t\\t\\t\\t\\t\\t\\t<a href="email.html?lang=en"><i class="fa fa-envelope"></i> Inbox</a>\\n\\t\\t\\t\\t\\t\\t\\t\\t\\t</li>\\n\\t\\t\\t\\t\\t\\t\\t\\t\\t<li>\\n\\t\\t\\t\\t\\t\\t\\t\\t\\t\\t<a href="email_compose.html?lang=en"><i class="fa fa-pencil"></i> Compose</a>\\n\\t\\t\\t\\t\\t\\t\\t\\t\\t</li>\\n\\t\\t\\t\\t\\t\\t\\t\\t</ul>\\n\\t\\t\\t\\t\\t\\t\\t</div>\\n\\t\\t\\t\\t\\t\\t</li>\\n\\t\\t\\t\\t\\t\\t<li>\\n\\t\\t\\t\\t\\t\\t\\t<a href="#sidebar-discover-courses" class="glyphicons crown" data-toggle="sidebar-discover"><i></i><span>Learning</span></a>\\n\\t\\t\\t\\t\\t\\t\\t<div id="sidebar-discover-courses" class="sidebar-discover-menu">\\n\\t\\t\\t\\t\\t\\t\\t\\t<div class="innerAll text-center border-bottom text-muted-dark">\\n\\t\\t\\t\\t\\t\\t\\t\\t\\t<strong>Learning</strong>\\n\\t\\t\\t\\t\\t\\t\\t\\t\\t<button class="btn btn-xs btn-default close-discover">\\n\\t\\t\\t\\t\\t\\t\\t\\t\\t\\t<i class="fa fa-fw fa-times"></i>\\n\\t\\t\\t\\t\\t\\t\\t\\t\\t</button>\\n\\t\\t\\t\\t\\t\\t\\t\\t</div>\\n\\t\\t\\t\\t\\t\\t\\t\\t<ul class="animated fadeIn">\\n\\t\\t\\t\\t\\t\\t\\t\\t\\t<li>\\n\\t\\t\\t\\t\\t\\t\\t\\t\\t\\t<a href="courses_2.html?lang=en"><i class="fa fa-circle-o"></i> Courses Home</a>\\n\\t\\t\\t\\t\\t\\t\\t\\t\\t</li>\\n\\t\\t\\t\\t\\t\\t\\t\\t\\t<li>\\n\\t\\t\\t\\t\\t\\t\\t\\t\\t\\t<a href="courses_listing.html?lang=en"><i class="fa fa-circle-o"></i> Courses Listing</a>\\n\\t\\t\\t\\t\\t\\t\\t\\t\\t</li>\\n\\t\\t\\t\\t\\t\\t\\t\\t\\t<li>\\n\\t\\t\\t\\t\\t\\t\\t\\t\\t\\t<a href="course.html?lang=en"><i class="fa fa-circle-o"></i> Course Page</a>\\n\\t\\t\\t\\t\\t\\t\\t\\t\\t</li>\\n\\t\\t\\t\\t\\t\\t\\t\\t</ul>\\n\\t\\t\\t\\t\\t\\t\\t</div>\\n\\t\\t\\t\\t\\t\\t</li>\\n\\t\\t\\t\\t\\t\\t<li>\\n\\t\\t\\t\\t\\t\\t\\t<a href="#sidebar-discover-support" data-toggle="sidebar-discover" class="glyphicons life_preserver"><i></i><span>Support</span></a>\\n\\t\\t\\t\\t\\t\\t\\t<div id="sidebar-discover-support" class="sidebar-discover-menu">\\n\\t\\t\\t\\t\\t\\t\\t\\t<div class="innerAll text-center border-bottom text-muted-dark">\\n\\t\\t\\t\\t\\t\\t\\t\\t\\t<strong>Support</strong>\\n\\t\\t\\t\\t\\t\\t\\t\\t\\t<button class="btn btn-xs btn-default close-discover">\\n\\t\\t\\t\\t\\t\\t\\t\\t\\t\\t<i class="fa fa-fw fa-times"></i>\\n\\t\\t\\t\\t\\t\\t\\t\\t\\t</button>\\n\\t\\t\\t\\t\\t\\t\\t\\t</div>\\n\\t\\t\\t\\t\\t\\t\\t\\t<ul class="animated fadeIn">\\n\\t\\t\\t\\t\\t\\t\\t\\t\\t<li>\\n\\t\\t\\t\\t\\t\\t\\t\\t\\t\\t<a href="support_tickets.html?lang=en"> <span class="badge pull-right badge-inverse">45</span><i class="fa fa-ticket"></i> <span>Tickets</span> </a>\\n\\t\\t\\t\\t\\t\\t\\t\\t\\t</li>\\n\\t\\t\\t\\t\\t\\t\\t\\t\\t<li>\\n\\t\\t\\t\\t\\t\\t\\t\\t\\t\\t<a href="support_forum_overview.html?lang=en"><i class="fa fa-folder-o"></i> <span>Overview page</span> </a>\\n\\t\\t\\t\\t\\t\\t\\t\\t\\t</li>\\n\\t\\t\\t\\t\\t\\t\\t\\t\\t<li>\\n\\t\\t\\t\\t\\t\\t\\t\\t\\t\\t<a href="support_forum_post.html?lang=en"><i class="fa fa-folder-o"></i><span>Post page</span></a>\\n\\t\\t\\t\\t\\t\\t\\t\\t\\t</li>\\n\\t\\t\\t\\t\\t\\t\\t\\t\\t<li>\\n\\t\\t\\t\\t\\t\\t\\t\\t\\t\\t<a href="support_kb.html?lang=en"><i class="fa fa-file-text-o"></i><span>Knowledge Base</span></a>\\n\\t\\t\\t\\t\\t\\t\\t\\t\\t</li>\\n\\t\\t\\t\\t\\t\\t\\t\\t\\t<li>\\n\\t\\t\\t\\t\\t\\t\\t\\t\\t\\t<a href="support_questions.html?lang=en"> <span class="badge pull-right badge-inverse">7</span><i class="fa fa-question"></i> <span>Questions</span> </a>\\n\\t\\t\\t\\t\\t\\t\\t\\t\\t</li>\\n\\t\\t\\t\\t\\t\\t\\t\\t\\t<li>\\n\\t\\t\\t\\t\\t\\t\\t\\t\\t\\t<a href="support_answers.html?lang=en"><i class="fa fa-info"></i><span>Answers</span></a>\\n\\t\\t\\t\\t\\t\\t\\t\\t\\t</li>\\n\\t\\t\\t\\t\\t\\t\\t\\t</ul>\\n\\t\\t\\t\\t\\t\\t\\t</div>\\n\\t\\t\\t\\t\\t\\t</li>\\n\\t\\t\\t\\t\\t\\t<li>\\n\\t\\t\\t\\t\\t\\t\\t<a href="#sidebar-discover-medical" data-toggle="sidebar-discover" class="glyphicons circle_plus"><i></i><span>Medical</span></a>\\n\\t\\t\\t\\t\\t\\t\\t<div id="sidebar-discover-medical" class="sidebar-discover-menu">\\n\\t\\t\\t\\t\\t\\t\\t\\t<div class="innerAll text-center border-bottom text-muted-dark">\\n\\t\\t\\t\\t\\t\\t\\t\\t\\t<strong>Medical App</strong>\\n\\t\\t\\t\\t\\t\\t\\t\\t\\t<button class="btn btn-xs btn-default close-discover">\\n\\t\\t\\t\\t\\t\\t\\t\\t\\t\\t<i class="fa fa-fw fa-times"></i>\\n\\t\\t\\t\\t\\t\\t\\t\\t\\t</button>\\n\\t\\t\\t\\t\\t\\t\\t\\t</div>\\n\\t\\t\\t\\t\\t\\t\\t\\t<ul class="animated fadeIn">\\n\\t\\t\\t\\t\\t\\t\\t\\t\\t<li class="">\\n\\t\\t\\t\\t\\t\\t\\t\\t\\t\\t<a href="medical_overview.html?lang=en"><i class="fa fa-medkit"></i> Overview</a>\\n\\t\\t\\t\\t\\t\\t\\t\\t\\t</li>\\n\\t\\t\\t\\t\\t\\t\\t\\t\\t<li class="">\\n\\t\\t\\t\\t\\t\\t\\t\\t\\t\\t<a href="medical_patients.html?lang=en"> <span class="badge pull-right badge-primary hidden-md">2</span><i class="fa fa-user-md"></i> Patients</a>\\n\\t\\t\\t\\t\\t\\t\\t\\t\\t</li>\\n\\t\\t\\t\\t\\t\\t\\t\\t\\t<li class="">\\n\\t\\t\\t\\t\\t\\t\\t\\t\\t\\t<a href="medical_appointments.html?lang=en"><i class="fa fa-stethoscope"></i> Appointments</a>\\n\\t\\t\\t\\t\\t\\t\\t\\t\\t</li>\\n\\t\\t\\t\\t\\t\\t\\t\\t\\t<li class="">\\n\\t\\t\\t\\t\\t\\t\\t\\t\\t\\t<a href="medical_memos.html?lang=en"><i class="fa fa-file-text-o"></i> Memos</a>\\n\\t\\t\\t\\t\\t\\t\\t\\t\\t</li>\\n\\t\\t\\t\\t\\t\\t\\t\\t\\t<li class="border-bottom-none">\\n\\t\\t\\t\\t\\t\\t\\t\\t\\t\\t<a href="medical_metrics.html?lang=en"><i class="fa fa-bar-chart-o"></i> Metrics</a>\\n\\t\\t\\t\\t\\t\\t\\t\\t\\t</li>\\n\\t\\t\\t\\t\\t\\t\\t\\t</ul>\\n\\t\\t\\t\\t\\t\\t\\t</div>\\n\\t\\t\\t\\t\\t\\t</li>\\n\\t\\t\\t\\t\\t\\t<li>\\n\\t\\t\\t\\t\\t\\t\\t<a href="#sidebar-discover-maps" class="glyphicons google_maps" data-toggle="sidebar-discover"><i></i><span>Maps</span></a>\\n\\t\\t\\t\\t\\t\\t\\t<div id="sidebar-discover-maps" class="sidebar-discover-menu">\\n\\t\\t\\t\\t\\t\\t\\t\\t<div class="innerAll text-center border-bottom text-muted-dark">\\n\\t\\t\\t\\t\\t\\t\\t\\t\\t<strong>Maps</strong>\\n\\t\\t\\t\\t\\t\\t\\t\\t\\t<button class="btn btn-xs btn-default close-discover">\\n\\t\\t\\t\\t\\t\\t\\t\\t\\t\\t<i class="fa fa-fw fa-times"></i>\\n\\t\\t\\t\\t\\t\\t\\t\\t\\t</button>\\n\\t\\t\\t\\t\\t\\t\\t\\t</div>\\n\\t\\t\\t\\t\\t\\t\\t\\t<ul class="animated fadeIn">\\n\\t\\t\\t\\t\\t\\t\\t\\t\\t<li>\\n\\t\\t\\t\\t\\t\\t\\t\\t\\t\\t<a href="maps_google.html?lang=en"><i class="fa fa-map-marker"></i> Google Maps</a>\\n\\t\\t\\t\\t\\t\\t\\t\\t\\t</li>\\n\\t\\t\\t\\t\\t\\t\\t\\t\\t<li>\\n\\t\\t\\t\\t\\t\\t\\t\\t\\t\\t<a href="maps_vector.html?lang=en"><i class="fa fa-map-marker"></i> Vector Maps</a>\\n\\t\\t\\t\\t\\t\\t\\t\\t\\t</li>\\n\\t\\t\\t\\t\\t\\t\\t\\t</ul>\\n\\t\\t\\t\\t\\t\\t\\t</div>\\n\\t\\t\\t\\t\\t\\t</li>\\n\\t\\t\\t\\t\\t\\t<li>\\n\\t\\t\\t\\t\\t\\t\\t<a href="#sidebar-discover-content" data-toggle="sidebar-discover" class="glyphicons notes_2"><i></i><span>Content</span></a>\\n\\t\\t\\t\\t\\t\\t\\t<div id="sidebar-discover-content" class="sidebar-discover-menu">\\n\\t\\t\\t\\t\\t\\t\\t\\t<div class="innerAll text-center border-bottom text-muted-dark">\\n\\t\\t\\t\\t\\t\\t\\t\\t\\t<strong>Content</strong>\\n\\t\\t\\t\\t\\t\\t\\t\\t\\t<button class="btn btn-xs btn-default close-discover">\\n\\t\\t\\t\\t\\t\\t\\t\\t\\t\\t<i class="fa fa-fw fa-times"></i>\\n\\t\\t\\t\\t\\t\\t\\t\\t\\t</button>\\n\\t\\t\\t\\t\\t\\t\\t\\t</div>\\n\\t\\t\\t\\t\\t\\t\\t\\t<ul class="animated fadeIn">\\n\\t\\t\\t\\t\\t\\t\\t\\t\\t<li>\\n\\t\\t\\t\\t\\t\\t\\t\\t\\t\\t<a href="news.html?lang=en"><i class="fa fa-file-text-o"></i> News</a>\\n\\t\\t\\t\\t\\t\\t\\t\\t\\t</li>\\n\\t\\t\\t\\t\\t\\t\\t\\t\\t<li>\\n\\t\\t\\t\\t\\t\\t\\t\\t\\t\\t<a href="faq.html?lang=en"><i class="fa fa-question-circle"></i> FAQ</a>\\n\\t\\t\\t\\t\\t\\t\\t\\t\\t</li>\\n\\t\\t\\t\\t\\t\\t\\t\\t\\t<li>\\n\\t\\t\\t\\t\\t\\t\\t\\t\\t\\t<a href="search.html?lang=en"><i class="fa fa-search"></i> Search</a>\\n\\t\\t\\t\\t\\t\\t\\t\\t\\t</li>\\n\\t\\t\\t\\t\\t\\t\\t\\t</ul>\\n\\t\\t\\t\\t\\t\\t\\t</div>\\n\\t\\t\\t\\t\\t\\t</li>\\n\\t\\t\\t\\t\\t\\t<li>\\n\\t\\t\\t\\t\\t\\t\\t<a href="#sidebar-discover-financial" data-toggle="sidebar-discover" class="glyphicons calculator"><i></i><span>Financial</span></a>\\n\\t\\t\\t\\t\\t\\t\\t<div id="sidebar-discover-financial" class="sidebar-discover-menu">\\n\\t\\t\\t\\t\\t\\t\\t\\t<div class="innerAll text-center border-bottom text-muted-dark">\\n\\t\\t\\t\\t\\t\\t\\t\\t\\t<strong>Financial</strong>\\n\\t\\t\\t\\t\\t\\t\\t\\t\\t<button class="btn btn-xs btn-default close-discover">\\n\\t\\t\\t\\t\\t\\t\\t\\t\\t\\t<i class="fa fa-fw fa-times"></i>\\n\\t\\t\\t\\t\\t\\t\\t\\t\\t</button>\\n\\t\\t\\t\\t\\t\\t\\t\\t</div>\\n\\t\\t\\t\\t\\t\\t\\t\\t<ul class="animated fadeIn">\\n\\t\\t\\t\\t\\t\\t\\t\\t\\t<li>\\n\\t\\t\\t\\t\\t\\t\\t\\t\\t\\t<a href="invoice.html?lang=en"><i class="fa fa-file-text-o"></i> Invoice</a>\\n\\t\\t\\t\\t\\t\\t\\t\\t\\t</li>\\n\\t\\t\\t\\t\\t\\t\\t\\t\\t<li>\\n\\t\\t\\t\\t\\t\\t\\t\\t\\t\\t<a href="finances.html?lang=en"><i class="fa fa-legal"></i> Finances</a>\\n\\t\\t\\t\\t\\t\\t\\t\\t\\t</li>\\n\\t\\t\\t\\t\\t\\t\\t\\t\\t<li>\\n\\t\\t\\t\\t\\t\\t\\t\\t\\t\\t<a href="bookings.html?lang=en"><i class="fa fa-ticket"></i> Bookings</a>\\n\\t\\t\\t\\t\\t\\t\\t\\t\\t</li>\\n\\t\\t\\t\\t\\t\\t\\t\\t</ul>\\n\\t\\t\\t\\t\\t\\t\\t</div>\\n\\t\\t\\t\\t\\t\\t</li>\\n\\t\\t\\t\\t\\t\\t<li>\\n\\t\\t\\t\\t\\t\\t\\t<a href="#sidebar-discover-shop" data-toggle="sidebar-discover" class="glyphicons shopping_cart"><i></i><span>eCommerce</span></a>\\n\\t\\t\\t\\t\\t\\t\\t<div id="sidebar-discover-shop" class="sidebar-discover-menu">\\n\\t\\t\\t\\t\\t\\t\\t\\t<div class="innerAll text-center border-bottom text-muted-dark">\\n\\t\\t\\t\\t\\t\\t\\t\\t\\t<strong>eCommerce</strong>\\n\\t\\t\\t\\t\\t\\t\\t\\t\\t<button class="btn btn-xs btn-default close-discover">\\n\\t\\t\\t\\t\\t\\t\\t\\t\\t\\t<i class="fa fa-fw fa-times"></i>\\n\\t\\t\\t\\t\\t\\t\\t\\t\\t</button>\\n\\t\\t\\t\\t\\t\\t\\t\\t</div>\\n\\t\\t\\t\\t\\t\\t\\t\\t<ul class="animated fadeIn">\\n\\t\\t\\t\\t\\t\\t\\t\\t\\t<li>\\n\\t\\t\\t\\t\\t\\t\\t\\t\\t\\t<a href="shop_products.html?lang=en"><i class="fa fa-list"></i><span>Products</span></a>\\n\\t\\t\\t\\t\\t\\t\\t\\t\\t</li>\\n\\t\\t\\t\\t\\t\\t\\t\\t\\t<li>\\n\\t\\t\\t\\t\\t\\t\\t\\t\\t\\t<a href="shop_edit_product.html?lang=en"><i class="fa fa-edit"></i><span>Edit product</span></a>\\n\\t\\t\\t\\t\\t\\t\\t\\t\\t</li>\\n\\t\\t\\t\\t\\t\\t\\t\\t</ul>\\n\\t\\t\\t\\t\\t\\t\\t</div>\\n\\t\\t\\t\\t\\t\\t</li>\\n\\t\\t\\t\\t\\t\\t<li>\\n\\t\\t\\t\\t\\t\\t\\t<a href="#sidebar-discover-manage" class="glyphicons wrench" data-toggle="sidebar-discover"><i></i><span>Manage</span></a>\\n\\t\\t\\t\\t\\t\\t\\t<div id="sidebar-discover-manage" class="sidebar-discover-menu">\\n\\t\\t\\t\\t\\t\\t\\t\\t<div class="innerAll text-center border-bottom text-muted-dark">\\n\\t\\t\\t\\t\\t\\t\\t\\t\\t<strong>Management</strong>\\n\\t\\t\\t\\t\\t\\t\\t\\t\\t<button class="btn btn-xs btn-default close-discover">\\n\\t\\t\\t\\t\\t\\t\\t\\t\\t\\t<i class="fa fa-fw fa-times"></i>\\n\\t\\t\\t\\t\\t\\t\\t\\t\\t</button>\\n\\t\\t\\t\\t\\t\\t\\t\\t</div>\\n\\t\\t\\t\\t\\t\\t\\t\\t<ul class="animated fadeIn">\\n\\t\\t\\t\\t\\t\\t\\t\\t\\t<li>\\n\\t\\t\\t\\t\\t\\t\\t\\t\\t\\t<a href="employees.html?lang=en"><i class="fa fa-user"></i> Employees</a>\\n\\t\\t\\t\\t\\t\\t\\t\\t\\t</li>\\n\\t\\t\\t\\t\\t\\t\\t\\t</ul>\\n\\t\\t\\t\\t\\t\\t\\t</div>\\n\\t\\t\\t\\t\\t\\t</li>\\n\\t\\t\\t\\t\\t\\t<li>\\n\\t\\t\\t\\t\\t\\t\\t<a href="surveys_multiple.html?lang=en" class="glyphicons turtle"><i></i><span>Surveys</span></a>\\n\\t\\t\\t\\t\\t\\t</li>\\n\\t\\t\\t\\t\\t\\t<li>\\n\\t\\t\\t\\t\\t\\t\\t<a href="events.html?lang=en" class="glyphicons google_maps"><i></i><span>Events</span></a>\\n\\t\\t\\t\\t\\t\\t</li>\\n\\t\\t\\t\\t\\t\\t<li>\\n\\t\\t\\t\\t\\t\\t\\t<a href="#sidebar-discover-elements" data-toggle="sidebar-discover" class="glyphicons adjust_alt"><i></i><span>Elements</span></a>\\n\\t\\t\\t\\t\\t\\t\\t<div id="sidebar-discover-elements" class="sidebar-discover-menu">\\n\\t\\t\\t\\t\\t\\t\\t\\t<div class="innerAll text-center border-bottom text-muted-dark">\\n\\t\\t\\t\\t\\t\\t\\t\\t\\t<strong>Components</strong>\\n\\t\\t\\t\\t\\t\\t\\t\\t\\t<button class="btn btn-xs btn-default close-discover">\\n\\t\\t\\t\\t\\t\\t\\t\\t\\t\\t<i class="fa fa-fw fa-times"></i>\\n\\t\\t\\t\\t\\t\\t\\t\\t\\t</button>\\n\\t\\t\\t\\t\\t\\t\\t\\t</div>\\n\\t\\t\\t\\t\\t\\t\\t\\t<ul class="animated fadeIn">\\n\\t\\t\\t\\t\\t\\t\\t\\t\\t<li class="">\\n\\t\\t\\t\\t\\t\\t\\t\\t\\t\\t<a href="ui.html?lang=en"><i class="fa fa-circle-o"></i><span>UI Elements</span></a>\\n\\t\\t\\t\\t\\t\\t\\t\\t\\t</li>\\n\\t\\t\\t\\t\\t\\t\\t\\t\\t<li class="">\\n\\t\\t\\t\\t\\t\\t\\t\\t\\t\\t<a href="icons.html?lang=en"><i class="fa fa-circle-o"></i><span>Icons</span></a>\\n\\t\\t\\t\\t\\t\\t\\t\\t\\t</li>\\n\\t\\t\\t\\t\\t\\t\\t\\t\\t<li class="">\\n\\t\\t\\t\\t\\t\\t\\t\\t\\t\\t<a href="typography.html?lang=en"><i class="fa fa-circle-o"></i><span>Typography</span></a>\\n\\t\\t\\t\\t\\t\\t\\t\\t\\t</li>\\n\\t\\t\\t\\t\\t\\t\\t\\t\\t<li class="">\\n\\t\\t\\t\\t\\t\\t\\t\\t\\t\\t<a href="calendar.html?lang=en"><i class="fa fa-circle-o"></i><span>Calendar</span></a>\\n\\t\\t\\t\\t\\t\\t\\t\\t\\t</li>\\n\\t\\t\\t\\t\\t\\t\\t\\t\\t<li class="">\\n\\t\\t\\t\\t\\t\\t\\t\\t\\t\\t<a href="tabs.html?lang=en"><i class="fa fa-circle-o"></i><span>Tabs</span></a>\\n\\t\\t\\t\\t\\t\\t\\t\\t\\t</li>\\n\\t\\t\\t\\t\\t\\t\\t\\t\\t<li class="hasSubmenu">\\n\\t\\t\\t\\t\\t\\t\\t\\t\\t\\t<a href="#menu_tables" data-toggle="collapse"> <span class="badge badge-primary pull-right">3</span><i class="fa fa-circle-o"></i> <span>Tables</span> </a>\\n\\t\\t\\t\\t\\t\\t\\t\\t\\t\\t<ul class="collapse animated fadeIn" id="menu_tables">\\n\\t\\t\\t\\t\\t\\t\\t\\t\\t\\t\\t<li class="">\\n\\t\\t\\t\\t\\t\\t\\t\\t\\t\\t\\t\\t<a href="tables.html?lang=en">Tables</a>\\n\\t\\t\\t\\t\\t\\t\\t\\t\\t\\t\\t</li>\\n\\t\\t\\t\\t\\t\\t\\t\\t\\t\\t\\t<li class="">\\n\\t\\t\\t\\t\\t\\t\\t\\t\\t\\t\\t\\t<a href="tables_responsive.html?lang=en">Responsive</a>\\n\\t\\t\\t\\t\\t\\t\\t\\t\\t\\t\\t</li>\\n\\t\\t\\t\\t\\t\\t\\t\\t\\t\\t\\t<li class="">\\n\\t\\t\\t\\t\\t\\t\\t\\t\\t\\t\\t\\t<a href="pricing_tables.html?lang=en">Pricing Tables</a>\\n\\t\\t\\t\\t\\t\\t\\t\\t\\t\\t\\t</li>\\n\\t\\t\\t\\t\\t\\t\\t\\t\\t\\t</ul>\\n\\t\\t\\t\\t\\t\\t\\t\\t\\t</li>\\n\\t\\t\\t\\t\\t\\t\\t\\t\\t<li class="hasSubmenu">\\n\\t\\t\\t\\t\\t\\t\\t\\t\\t\\t<a href="#menu_forms" data-toggle="collapse"> <span class="badge badge-primary pull-right">4</span><i class="fa fa-circle-o"></i> <span>Forms</span> </a>\\n\\t\\t\\t\\t\\t\\t\\t\\t\\t\\t<ul class="collapse" id="menu_forms">\\n\\t\\t\\t\\t\\t\\t\\t\\t\\t\\t\\t<li class="">\\n\\t\\t\\t\\t\\t\\t\\t\\t\\t\\t\\t\\t<a href="form_wizards.html?lang=en">Form Wizards</a>\\n\\t\\t\\t\\t\\t\\t\\t\\t\\t\\t\\t</li>\\n\\t\\t\\t\\t\\t\\t\\t\\t\\t\\t\\t<li class="">\\n\\t\\t\\t\\t\\t\\t\\t\\t\\t\\t\\t\\t<a href="form_elements.html?lang=en">Form Elements</a>\\n\\t\\t\\t\\t\\t\\t\\t\\t\\t\\t\\t</li>\\n\\t\\t\\t\\t\\t\\t\\t\\t\\t\\t\\t<li class="">\\n\\t\\t\\t\\t\\t\\t\\t\\t\\t\\t\\t\\t<a href="form_validator.html?lang=en">Form Validator</a>\\n\\t\\t\\t\\t\\t\\t\\t\\t\\t\\t\\t</li>\\n\\t\\t\\t\\t\\t\\t\\t\\t\\t\\t\\t<li class="">\\n\\t\\t\\t\\t\\t\\t\\t\\t\\t\\t\\t\\t<a href="file_managers.html?lang=en">File Managers</a>\\n\\t\\t\\t\\t\\t\\t\\t\\t\\t\\t\\t</li>\\n\\t\\t\\t\\t\\t\\t\\t\\t\\t\\t</ul>\\n\\t\\t\\t\\t\\t\\t\\t\\t\\t</li>\\n\\t\\t\\t\\t\\t\\t\\t\\t\\t<li class="">\\n\\t\\t\\t\\t\\t\\t\\t\\t\\t\\t<a href="sliders.html?lang=en"><i class="fa fa-circle-o"></i><span>Sliders</span></a>\\n\\t\\t\\t\\t\\t\\t\\t\\t\\t</li>\\n\\t\\t\\t\\t\\t\\t\\t\\t\\t<li class="">\\n\\t\\t\\t\\t\\t\\t\\t\\t\\t\\t<a href="charts.html?lang=en"><i class="fa fa-circle-o"></i><span>Charts</span></a>\\n\\t\\t\\t\\t\\t\\t\\t\\t\\t</li>\\n\\t\\t\\t\\t\\t\\t\\t\\t\\t<li class="">\\n\\t\\t\\t\\t\\t\\t\\t\\t\\t\\t<a href="grid.html?lang=en"><i class="fa fa-circle-o"></i><span>Grid</span></a>\\n\\t\\t\\t\\t\\t\\t\\t\\t\\t</li>\\n\\t\\t\\t\\t\\t\\t\\t\\t\\t<li class="">\\n\\t\\t\\t\\t\\t\\t\\t\\t\\t\\t<a href="notifications.html?lang=en"><i class="fa fa-circle-o"></i><span>Notifications</span></a>\\n\\t\\t\\t\\t\\t\\t\\t\\t\\t</li>\\n\\t\\t\\t\\t\\t\\t\\t\\t\\t<li class="">\\n\\t\\t\\t\\t\\t\\t\\t\\t\\t\\t<a href="modals.html?lang=en"><i class="fa fa-circle-o"></i><span>Modals</span></a>\\n\\t\\t\\t\\t\\t\\t\\t\\t\\t</li>\\n\\t\\t\\t\\t\\t\\t\\t\\t\\t<li class="">\\n\\t\\t\\t\\t\\t\\t\\t\\t\\t\\t<a href="thumbnails.html?lang=en"><i class="fa fa-circle-o"></i><span>Thumbnails</span></a>\\n\\t\\t\\t\\t\\t\\t\\t\\t\\t</li>\\n\\t\\t\\t\\t\\t\\t\\t\\t\\t<li class="">\\n\\t\\t\\t\\t\\t\\t\\t\\t\\t\\t<a href="carousels.html?lang=en"><i class="fa fa-circle-o"></i><span>Carousels</span></a>\\n\\t\\t\\t\\t\\t\\t\\t\\t\\t</li>\\n\\t\\t\\t\\t\\t\\t\\t\\t\\t<li class="">\\n\\t\\t\\t\\t\\t\\t\\t\\t\\t\\t<a href="image_crop.html?lang=en"><i class="fa fa-circle-o"></i><span>Image Crop</span></a>\\n\\t\\t\\t\\t\\t\\t\\t\\t\\t</li>\\n\\t\\t\\t\\t\\t\\t\\t\\t\\t<li class="">\\n\\t\\t\\t\\t\\t\\t\\t\\t\\t\\t<a href="twitter.html?lang=en"><i class="fa fa-circle-o"></i><span>Twitter API</span></a>\\n\\t\\t\\t\\t\\t\\t\\t\\t\\t</li>\\n\\t\\t\\t\\t\\t\\t\\t\\t\\t<li class="">\\n\\t\\t\\t\\t\\t\\t\\t\\t\\t\\t<a href="infinite_scroll.html?lang=en"><i class="fa fa-circle-o"></i><span>Infinite Scroll</span></a>\\n\\t\\t\\t\\t\\t\\t\\t\\t\\t</li>\\n\\t\\t\\t\\t\\t\\t\\t\\t</ul>\\n\\t\\t\\t\\t\\t\\t\\t</div>\\n\\t\\t\\t\\t\\t\\t</li>\\n\\t\\t\\t\\t\\t\\t<li>\\n\\t\\t\\t\\t\\t\\t\\t<a href="#sidebar-discover-account" data-toggle="sidebar-discover" class="glyphicons user"><i></i><span>Account</span></a>\\n\\t\\t\\t\\t\\t\\t\\t<div id="sidebar-discover-account" class="sidebar-discover-menu">\\n\\t\\t\\t\\t\\t\\t\\t\\t<div class="innerAll text-center border-bottom text-muted-dark">\\n\\t\\t\\t\\t\\t\\t\\t\\t\\t<strong>Account</strong>\\n\\t\\t\\t\\t\\t\\t\\t\\t\\t<button class="btn btn-xs btn-default close-discover">\\n\\t\\t\\t\\t\\t\\t\\t\\t\\t\\t<i class="fa fa-fw fa-times"></i>\\n\\t\\t\\t\\t\\t\\t\\t\\t\\t</button>\\n\\t\\t\\t\\t\\t\\t\\t\\t</div>\\n\\t\\t\\t\\t\\t\\t\\t\\t<ul class="animated fadeIn">\\n\\t\\t\\t\\t\\t\\t\\t\\t\\t<li>\\n\\t\\t\\t\\t\\t\\t\\t\\t\\t\\t<a href="profile_resume.html?lang=en"><i class="fa fa-user"></i> Profile / CV</a>\\n\\t\\t\\t\\t\\t\\t\\t\\t\\t</li>\\n\\t\\t\\t\\t\\t\\t\\t\\t\\t<li>\\n\\t\\t\\t\\t\\t\\t\\t\\t\\t\\t<a href="my_account.html?lang=en"><i class="fa fa-user"></i> My Account</a>\\n\\t\\t\\t\\t\\t\\t\\t\\t\\t</li>\\n\\t\\t\\t\\t\\t\\t\\t\\t\\t<li>\\n\\t\\t\\t\\t\\t\\t\\t\\t\\t\\t<a href="login.html?lang=en" class="no-ajaxify"><i class="fa fa-lock"></i> Login</a>\\n\\t\\t\\t\\t\\t\\t\\t\\t\\t</li>\\n\\t\\t\\t\\t\\t\\t\\t\\t\\t<li>\\n\\t\\t\\t\\t\\t\\t\\t\\t\\t\\t<a href="signup.html?lang=en" class="no-ajaxify"><i class="fa fa-pencil"></i> Signup</a>\\n\\t\\t\\t\\t\\t\\t\\t\\t\\t</li>\\n\\t\\t\\t\\t\\t\\t\\t\\t</ul>\\n\\t\\t\\t\\t\\t\\t\\t</div>\\n\\t\\t\\t\\t\\t\\t</li>\\n\\t\\t\\t\\t\\t\\t<li>\\n\\t\\t\\t\\t\\t\\t\\t<a href="error.html?lang=en" class="glyphicons warning_sign"><i></i><span>Error</span></a>\\n\\t\\t\\t\\t\\t\\t</li>\\n\\t\\t\\t\\t\\t</ul>\\n\\t\\t\\t\\t</div>\\n\\t\\t\\t</div>\\n\\t\\t\\t<!-- // Sidebar Menu END -->\\n\\t\\t\\t<!-- Content -->\\n\\t\\t\\t<div id="content">\\n\\t\\t\\t\\t<nav class="navbar hidden-print main " role="navigation">\\n\\t\\t\\t\\t\\t<div class="navbar-header pull-left">\\n\\t\\t\\t\\t\\t\\t<div class="user-action user-action-btn-navbar pull-left border-right">\\n\\t\\t\\t\\t\\t\\t\\t<button class="btn btn-sm btn-navbar btn-inverse btn-stroke">\\n\\t\\t\\t\\t\\t\\t\\t\\t<i class="fa fa-bars fa-2x"></i>\\n\\t\\t\\t\\t\\t\\t\\t</button>\\n\\t\\t\\t\\t\\t\\t</div>\\n\\t\\t\\t\\t\\t</div>\\n\\t\\t\\t\\t\\t<ul class="main pull-right ">\\n\\t\\t\\t\\t\\t\\t<li class="dropdown notif notifications hidden-xs">\\n\\t\\t\\t\\t\\t\\t\\t<a href="" class="dropdown-toggle" data-toggle="dropdown"><i class="icon-bell-fill"></i> <span class="label label-danger">5</span></a>\\n\\t\\t\\t\\t\\t\\t\\t<ul class="dropdown-menu chat media-list pull-right">\\n\\t\\t\\t\\t\\t\\t\\t\\t<li class="media">\\n\\t\\t\\t\\t\\t\\t\\t\\t\\t<a class="pull-left" href="#"> <img class="media-object thumb" src="../assets/images/people/100/15.jpg" alt="50x50"\\n\\t\\t\\t\\t\\t\\t\\t\\t\\twidth="50" /> </a>\\n\\t\\t\\t\\t\\t\\t\\t\\t\\t<div class="media-body">\\n\\t\\t\\t\\t\\t\\t\\t\\t\\t\\t<span class="label label-default pull-right">5 min</span>\\n\\t\\t\\t\\t\\t\\t\\t\\t\\t\\t<h5 class="media-heading">Adrian D.</h5>\\n\\t\\t\\t\\t\\t\\t\\t\\t\\t\\t<p class="margin-none">\\n\\t\\t\\t\\t\\t\\t\\t\\t\\t\\t\\tLorem ipsum dolor sit amet, consectetur adipisicing\\n\\t\\t\\t\\t\\t\\t\\t\\t\\t\\t\\telit.\\n\\t\\t\\t\\t\\t\\t\\t\\t\\t\\t</p>\\n\\t\\t\\t\\t\\t\\t\\t\\t\\t</div>\\n\\t\\t\\t\\t\\t\\t\\t\\t</li>\\n\\t\\t\\t\\t\\t\\t\\t\\t<li class="media">\\n\\t\\t\\t\\t\\t\\t\\t\\t\\t<a class="pull-left" href="#"> <img class="media-object thumb" src="../assets/images/people/100/16.jpg" alt="50x50"\\n\\t\\t\\t\\t\\t\\t\\t\\t\\twidth="50" /> </a>\\n\\t\\t\\t\\t\\t\\t\\t\\t\\t<div class="media-body">\\n\\t\\t\\t\\t\\t\\t\\t\\t\\t\\t<span class="label label-default pull-right">2 days</span>\\n\\t\\t\\t\\t\\t\\t\\t\\t\\t\\t<h5 class="media-heading">Jane B.</h5>\\n\\t\\t\\t\\t\\t\\t\\t\\t\\t\\t<p class="margin-none">\\n\\t\\t\\t\\t\\t\\t\\t\\t\\t\\t\\tLorem ipsum dolor sit amet, consectetur adipisicing\\n\\t\\t\\t\\t\\t\\t\\t\\t\\t\\t\\telit.\\n\\t\\t\\t\\t\\t\\t\\t\\t\\t\\t</p>\\n\\t\\t\\t\\t\\t\\t\\t\\t\\t</div>\\n\\t\\t\\t\\t\\t\\t\\t\\t</li>\\n\\t\\t\\t\\t\\t\\t\\t\\t<li class="media">\\n\\t\\t\\t\\t\\t\\t\\t\\t\\t<a class="pull-left" href="#"> <img class="media-object thumb" src="../assets/images/people/100/17.jpg" alt="50x50"\\n\\t\\t\\t\\t\\t\\t\\t\\t\\twidth="50" /> </a>\\n\\t\\t\\t\\t\\t\\t\\t\\t\\t<div class="media-body">\\n\\t\\t\\t\\t\\t\\t\\t\\t\\t\\t<span class="label label-default pull-right">3 days</span>\\n\\t\\t\\t\\t\\t\\t\\t\\t\\t\\t<h5 class="media-heading">Andrew M.</h5>\\n\\t\\t\\t\\t\\t\\t\\t\\t\\t\\t<p class="margin-none">\\n\\t\\t\\t\\t\\t\\t\\t\\t\\t\\t\\tLorem ipsum dolor sit amet, consectetur adipisicing\\n\\t\\t\\t\\t\\t\\t\\t\\t\\t\\t\\telit.\\n\\t\\t\\t\\t\\t\\t\\t\\t\\t\\t</p>\\n\\t\\t\\t\\t\\t\\t\\t\\t\\t</div>\\n\\t\\t\\t\\t\\t\\t\\t\\t</li>\\n\\t\\t\\t\\t\\t\\t\\t\\t<li>\\n\\t\\t\\t\\t\\t\\t\\t\\t\\t<a href="#" class="btn btn-primary"><i class="fa fa-list"></i> <span>View all messages</span></a>\\n\\t\\t\\t\\t\\t\\t\\t\\t</li>\\n\\t\\t\\t\\t\\t\\t\\t</ul>\\n\\t\\t\\t\\t\\t\\t</li>\\n\\t\\t\\t\\t\\t\\t<li class="dropdown username">\\n\\t\\t\\t\\t\\t\\t\\t<a href="" class="dropdown-toggle" data-toggle="dropdown"> <img src="../assets/images/people/35/2.jpg" class="img-circle" width="30" />Bill Jonson <span class="caret"></span> </a>\\n\\t\\t\\t\\t\\t\\t\\t<ul class="dropdown-menu pull-right">\\n\\t\\t\\t\\t\\t\\t\\t\\t<li>\\n\\t\\t\\t\\t\\t\\t\\t\\t\\t<a href="my_account.html?lang=en" class="glyphicons user"><i></i> Account</a>\\n\\t\\t\\t\\t\\t\\t\\t\\t</li>\\n\\t\\t\\t\\t\\t\\t\\t\\t<li>\\n\\t\\t\\t\\t\\t\\t\\t\\t\\t<a href="messages.html?lang=en" class="glyphicons envelope"><i></i>Messages</a>\\n\\t\\t\\t\\t\\t\\t\\t\\t</li>\\n\\t\\t\\t\\t\\t\\t\\t\\t<li>\\n\\t\\t\\t\\t\\t\\t\\t\\t\\t<a href="index.html?lang=en" class="glyphicons settings"><i></i>Settings</a>\\n\\t\\t\\t\\t\\t\\t\\t\\t</li>\\n\\t\\t\\t\\t\\t\\t\\t\\t<li>\\n\\t\\t\\t\\t\\t\\t\\t\\t\\t<a href="login.html?lang=en" class="glyphicons lock no-ajaxify"><i></i>Logout</a>\\n\\t\\t\\t\\t\\t\\t\\t\\t</li>\\n\\t\\t\\t\\t\\t\\t\\t</ul>\\n\\t\\t\\t\\t\\t\\t</li>\\n\\t\\t\\t\\t\\t</ul>\\n\\t\\t\\t\\t\\t<div class="navbar-collapse collapse">\\n\\t\\t\\t\\t\\t\\t\', escape=False)\nif response.menu:\n    response.write(\'\\n\\t\\t\\t\\t\\t\\t\\t\', escape=False)\n    response.write(MENU(response.menu, _class=\'mobile-menu nav\' if is_mobile else \'nav\',mobile=is_mobile,li_class=\'dropdown\',ul_class=\'dropdown-menu\'))\n    response.write(\'\\n\\t\\t\\t\\t\\t\\t\\t\', escape=False)\n    pass\nresponse.write(\'\\n\\t\\t\\t\\t\\t</div>\\n\\t\\t\\t\\t</nav>\\n\\t\\t\\t\\t<!-- // END navbar -->\\n\\t\\t\\t\\t<div class="innerLR">\\n\\t\\t\\t\\t\\t<h2 class="margin-none">Analytics &nbsp;<i class="fa fa-fw fa-pencil text-muted"></i></h2>\\n\\t\\t\\t\\t\\t<div class="row">\\n\\t\\t\\t\\t\\t\\t<div class="col-md-8">\\n\\t\\t\\t\\t\\t\\t\\t<div class="row">\\n\\t\\t\\t\\t\\t\\t\\t\\t<div class="col-md-6">\\n\\t\\t\\t\\t\\t\\t\\t\\t\\t<div class="widget innerAll text-center">\\n\\t\\t\\t\\t\\t\\t\\t\\t\\t\\t<h3 class="innerT">Overall Performance</h3>\\n\\t\\t\\t\\t\\t\\t\\t\\t\\t\\t<p class="innerB margin-none text-xlarge text-condensed strong text-primary">\\n\\t\\t\\t\\t\\t\\t\\t\\t\\t\\t\\t+281\\n\\t\\t\\t\\t\\t\\t\\t\\t\\t\\t</p>\\n\\t\\t\\t\\t\\t\\t\\t\\t\\t\\t<div class="innerTB">\\n\\t\\t\\t\\t\\t\\t\\t\\t\\t\\t\\t<div class="sparkline" sparkHeight="57">\\n\\t\\t\\t\\t\\t\\t\\t\\t\\t\\t\\t\\t0:10,7:3,5:5,6:4,3:7,7:3,5:5,6:4,2:8,3:7,7:3,5:5,0:10\\n\\t\\t\\t\\t\\t\\t\\t\\t\\t\\t\\t</div>\\n\\t\\t\\t\\t\\t\\t\\t\\t\\t\\t</div>\\n\\t\\t\\t\\t\\t\\t\\t\\t\\t</div>\\n\\t\\t\\t\\t\\t\\t\\t\\t</div>\\n\\t\\t\\t\\t\\t\\t\\t\\t<div class="col-md-6">\\n\\t\\t\\t\\t\\t\\t\\t\\t\\t<div class="widget widget-tabs widget-tabs-double-2 border-bottom widget-tabs-responsive">\\n\\t\\t\\t\\t\\t\\t\\t\\t\\t\\t<div class="widget-body">\\n\\t\\t\\t\\t\\t\\t\\t\\t\\t\\t\\t<div class="tab-content">\\n\\t\\t\\t\\t\\t\\t\\t\\t\\t\\t\\t\\t<!-- Tab content -->\\n\\t\\t\\t\\t\\t\\t\\t\\t\\t\\t\\t\\t<div id="tabReports" class="tab-pane active widget-body-regular innerAll inner-2x text-center">\\n\\t\\t\\t\\t\\t\\t\\t\\t\\t\\t\\t\\t\\t<div data-percent="85" data-size="95" class="easy-pie inline-block primary" data-scale-color="false"\\n\\t\\t\\t\\t\\t\\t\\t\\t\\t\\t\\t\\t\\tdata-track-color="#efefef" data-line-width="8">\\n\\t\\t\\t\\t\\t\\t\\t\\t\\t\\t\\t\\t\\t\\t<div class="value text-center">\\n\\t\\t\\t\\t\\t\\t\\t\\t\\t\\t\\t\\t\\t\\t\\t<span class="strong"><i class="icon-graph-up-1 fa-3x text-primary"></i> </span>\\n\\t\\t\\t\\t\\t\\t\\t\\t\\t\\t\\t\\t\\t\\t</div>\\n\\t\\t\\t\\t\\t\\t\\t\\t\\t\\t\\t\\t\\t</div>\\n\\t\\t\\t\\t\\t\\t\\t\\t\\t\\t\\t\\t</div>\\n\\t\\t\\t\\t\\t\\t\\t\\t\\t\\t\\t\\t<!-- // Tab content END -->\\n\\t\\t\\t\\t\\t\\t\\t\\t\\t\\t\\t\\t<!-- Tab content -->\\n\\t\\t\\t\\t\\t\\t\\t\\t\\t\\t\\t\\t<div id="tabIncome" class="tab-pane widget-body-regular innerAll inner-2x text-center">\\n\\t\\t\\t\\t\\t\\t\\t\\t\\t\\t\\t\\t\\tLorem ipsum dolor sit amet, consectetur adipisicing elit. Reprehenderit, omnis\\n\\t\\t\\t\\t\\t\\t\\t\\t\\t\\t\\t\\t\\tminus voluptatibus assumenda sint\\n\\t\\t\\t\\t\\t\\t\\t\\t\\t\\t\\t\\t\\tautem dolorum. Rem, cupiditate,\\n\\t\\t\\t\\t\\t\\t\\t\\t\\t\\t\\t\\t\\tsed, optio est cumque repudiandae\\n\\t\\t\\t\\t\\t\\t\\t\\t\\t\\t\\t\\t\\tquo natus dignissimos praesentium\\n\\t\\t\\t\\t\\t\\t\\t\\t\\t\\t\\t\\t\\talias nihil aspernatur?\\n\\t\\t\\t\\t\\t\\t\\t\\t\\t\\t\\t\\t</div>\\n\\t\\t\\t\\t\\t\\t\\t\\t\\t\\t\\t\\t<!-- // Tab content END -->\\n\\t\\t\\t\\t\\t\\t\\t\\t\\t\\t\\t\\t<!-- Tab content -->\\n\\t\\t\\t\\t\\t\\t\\t\\t\\t\\t\\t\\t<div id="tabAccounts" class="tab-pane widget-body-regular innerAll inner-2x text-center">\\n\\t\\t\\t\\t\\t\\t\\t\\t\\t\\t\\t\\t\\tLorem ipsum dolor sit amet, consectetur adipisicing elit. Hic qui natus deserunt\\n\\t\\t\\t\\t\\t\\t\\t\\t\\t\\t\\t\\t\\tatque quae laborum. Porro, eveniet,\\n\\t\\t\\t\\t\\t\\t\\t\\t\\t\\t\\t\\t\\tvoluptatem, obcaecati quisquam\\n\\t\\t\\t\\t\\t\\t\\t\\t\\t\\t\\t\\t\\ttempore architecto nostrum quis\\n\\t\\t\\t\\t\\t\\t\\t\\t\\t\\t\\t\\t\\teius corrupti ea non facilis quidem.\\n\\t\\t\\t\\t\\t\\t\\t\\t\\t\\t\\t\\t</div>\\n\\t\\t\\t\\t\\t\\t\\t\\t\\t\\t\\t\\t<!-- // Tab content END -->\\n\\t\\t\\t\\t\\t\\t\\t\\t\\t\\t\\t</div>\\n\\t\\t\\t\\t\\t\\t\\t\\t\\t\\t</div>\\n\\t\\t\\t\\t\\t\\t\\t\\t\\t\\t<!-- Tabs Heading -->\\n\\t\\t\\t\\t\\t\\t\\t\\t\\t\\t<div class="widget-head border-top-none bg-gray">\\n\\t\\t\\t\\t\\t\\t\\t\\t\\t\\t\\t<ul>\\n\\t\\t\\t\\t\\t\\t\\t\\t\\t\\t\\t\\t<li class="active">\\n\\t\\t\\t\\t\\t\\t\\t\\t\\t\\t\\t\\t\\t<a class="glyphicons notes" href="#tabReports"\\n\\t\\t\\t\\t\\t\\t\\t\\t\\t\\t\\t\\t\\tdata-toggle="tab"><i></i><span>Reports</span></a>\\n\\t\\t\\t\\t\\t\\t\\t\\t\\t\\t\\t\\t</li>\\n\\t\\t\\t\\t\\t\\t\\t\\t\\t\\t\\t\\t<li>\\n\\t\\t\\t\\t\\t\\t\\t\\t\\t\\t\\t\\t\\t<a class="glyphicons credit_card" href="#tabIncome"\\n\\t\\t\\t\\t\\t\\t\\t\\t\\t\\t\\t\\t\\tdata-toggle="tab"><i></i><span>Income</span></a>\\n\\t\\t\\t\\t\\t\\t\\t\\t\\t\\t\\t\\t</li>\\n\\t\\t\\t\\t\\t\\t\\t\\t\\t\\t\\t\\t<li>\\n\\t\\t\\t\\t\\t\\t\\t\\t\\t\\t\\t\\t\\t<a class="glyphicons user" href="#tabAccounts"\\n\\t\\t\\t\\t\\t\\t\\t\\t\\t\\t\\t\\t\\tdata-toggle="tab"><i></i><span>Accounts</span></a>\\n\\t\\t\\t\\t\\t\\t\\t\\t\\t\\t\\t\\t</li>\\n\\t\\t\\t\\t\\t\\t\\t\\t\\t\\t\\t</ul>\\n\\t\\t\\t\\t\\t\\t\\t\\t\\t\\t</div>\\n\\t\\t\\t\\t\\t\\t\\t\\t\\t\\t<!-- // Tabs Heading END -->\\n\\t\\t\\t\\t\\t\\t\\t\\t\\t</div>\\n\\t\\t\\t\\t\\t\\t\\t\\t\\t<!-- //Widget -->\\n\\t\\t\\t\\t\\t\\t\\t\\t</div>\\n\\t\\t\\t\\t\\t\\t\\t\\t<!-- //Col -->\\n\\t\\t\\t\\t\\t\\t\\t</div>\\n\\t\\t\\t\\t\\t\\t\\t<!-- //Row -->\\n\\t\\t\\t\\t\\t\\t\\t<!-- Widget -->\\n\\t\\t\\t\\t\\t\\t\\t<div class=" widget widget-body-white ">\\n\\t\\t\\t\\t\\t\\t\\t\\t<div class="widget-head height-auto ">\\n\\t\\t\\t\\t\\t\\t\\t\\t\\t<div class="row row-merge ">\\n\\t\\t\\t\\t\\t\\t\\t\\t\\t\\t<div class="col-md-6">\\n\\t\\t\\t\\t\\t\\t\\t\\t\\t\\t\\t<div class="innerAll inner-2x text-center">\\n\\t\\t\\t\\t\\t\\t\\t\\t\\t\\t\\t\\t<h5 class="margin-none innerB half">Gross Revenue</h5>\\n\\t\\t\\t\\t\\t\\t\\t\\t\\t\\t\\t\\t<h4 class="text-medium strong text-primary margin-none">10,201.00</h4>\\n\\t\\t\\t\\t\\t\\t\\t\\t\\t\\t\\t</div>\\n\\t\\t\\t\\t\\t\\t\\t\\t\\t\\t</div>\\n\\t\\t\\t\\t\\t\\t\\t\\t\\t\\t<div class="col-md-6">\\n\\t\\t\\t\\t\\t\\t\\t\\t\\t\\t\\t<div class="innerAll inner-2x text-center">\\n\\t\\t\\t\\t\\t\\t\\t\\t\\t\\t\\t\\t<h5 class="margin-none innerB half">Net Revenue</h5>\\n\\t\\t\\t\\t\\t\\t\\t\\t\\t\\t\\t\\t<h4 class="text-medium text-primary strong margin-none">8,812.40</h4>\\n\\t\\t\\t\\t\\t\\t\\t\\t\\t\\t\\t</div>\\n\\t\\t\\t\\t\\t\\t\\t\\t\\t\\t</div>\\n\\t\\t\\t\\t\\t\\t\\t\\t\\t</div>\\n\\t\\t\\t\\t\\t\\t\\t\\t</div>\\n\\t\\t\\t\\t\\t\\t\\t\\t<div class="widget-body innerAll">\\n\\t\\t\\t\\t\\t\\t\\t\\t\\t<!-- Chart with lines and fill with no points -->\\n\\t\\t\\t\\t\\t\\t\\t\\t\\t<div id="chart_lines_fill_nopoints_2" class="flotchart-holder"></div>\\n\\t\\t\\t\\t\\t\\t\\t\\t</div>\\n\\t\\t\\t\\t\\t\\t\\t</div>\\n\\t\\t\\t\\t\\t\\t\\t<!-- //Widget -->\\n\\t\\t\\t\\t\\t\\t\\t<div class="row">\\n\\t\\t\\t\\t\\t\\t\\t\\t<div class="col-md-6">\\n\\t\\t\\t\\t\\t\\t\\t\\t\\t<!-- Widget -->\\n\\t\\t\\t\\t\\t\\t\\t\\t\\t<div class="widget">\\n\\t\\t\\t\\t\\t\\t\\t\\t\\t\\t<div class="bg-primary text-center innerAll">\\n\\t\\t\\t\\t\\t\\t\\t\\t\\t\\t\\t<div class="innerTB">\\n\\t\\t\\t\\t\\t\\t\\t\\t\\t\\t\\t\\t<h4 class="innerTB text-white">Today\\\'s Weather</h4>\\n\\t\\t\\t\\t\\t\\t\\t\\t\\t\\t\\t\\t<div class="strong text-xlarge text-white">\\n\\t\\t\\t\\t\\t\\t\\t\\t\\t\\t\\t\\t\\t<i class="fa fa-cloud"></i> 26<sup>&deg;</sup>\\n\\t\\t\\t\\t\\t\\t\\t\\t\\t\\t\\t\\t</div>\\n\\t\\t\\t\\t\\t\\t\\t\\t\\t\\t\\t</div>\\n\\t\\t\\t\\t\\t\\t\\t\\t\\t\\t</div>\\n\\t\\t\\t\\t\\t\\t\\t\\t\\t\\t<div class="row row-merge">\\n\\t\\t\\t\\t\\t\\t\\t\\t\\t\\t\\t<div class="col-md-6">\\n\\t\\t\\t\\t\\t\\t\\t\\t\\t\\t\\t\\t<div class="text-center innerAll">\\n\\t\\t\\t\\t\\t\\t\\t\\t\\t\\t\\t\\t\\t<p class="margin-none">\\n\\t\\t\\t\\t\\t\\t\\t\\t\\t\\t\\t\\t\\t\\t<i class="fa icon-wind-speed-censor fa-2x"></i>\\n\\t\\t\\t\\t\\t\\t\\t\\t\\t\\t\\t\\t\\t</p>\\n\\t\\t\\t\\t\\t\\t\\t\\t\\t\\t\\t\\t\\t<p class="lead margin-none strong">\\n\\t\\t\\t\\t\\t\\t\\t\\t\\t\\t\\t\\t\\t\\t15 m/h\\n\\t\\t\\t\\t\\t\\t\\t\\t\\t\\t\\t\\t\\t</p>\\n\\t\\t\\t\\t\\t\\t\\t\\t\\t\\t\\t\\t</div>\\n\\t\\t\\t\\t\\t\\t\\t\\t\\t\\t\\t</div>\\n\\t\\t\\t\\t\\t\\t\\t\\t\\t\\t\\t<div class="col-md-6">\\n\\t\\t\\t\\t\\t\\t\\t\\t\\t\\t\\t\\t<div class="text-center innerAll">\\n\\t\\t\\t\\t\\t\\t\\t\\t\\t\\t\\t\\t\\t<p class="margin-none">\\n\\t\\t\\t\\t\\t\\t\\t\\t\\t\\t\\t\\t\\t\\t<i class="fa icon-water fa-2x"></i>\\n\\t\\t\\t\\t\\t\\t\\t\\t\\t\\t\\t\\t\\t</p>\\n\\t\\t\\t\\t\\t\\t\\t\\t\\t\\t\\t\\t\\t<p class="lead margin-none strong">\\n\\t\\t\\t\\t\\t\\t\\t\\t\\t\\t\\t\\t\\t\\t40%\\n\\t\\t\\t\\t\\t\\t\\t\\t\\t\\t\\t\\t\\t</p>\\n\\t\\t\\t\\t\\t\\t\\t\\t\\t\\t\\t\\t</div>\\n\\t\\t\\t\\t\\t\\t\\t\\t\\t\\t\\t</div>\\n\\t\\t\\t\\t\\t\\t\\t\\t\\t\\t</div>\\n\\t\\t\\t\\t\\t\\t\\t\\t\\t\\t<!-- //Widget -->\\n\\t\\t\\t\\t\\t\\t\\t\\t\\t</div>\\n\\t\\t\\t\\t\\t\\t\\t\\t</div>\\n\\t\\t\\t\\t\\t\\t\\t\\t<div class="col-md-6">\\n\\t\\t\\t\\t\\t\\t\\t\\t\\t<div class="widget">\\n\\t\\t\\t\\t\\t\\t\\t\\t\\t\\t<div class="widget-body innerB half">\\n\\t\\t\\t\\t\\t\\t\\t\\t\\t\\t\\t<!-- Chart with lines and fill with no points -->\\n\\t\\t\\t\\t\\t\\t\\t\\t\\t\\t\\t<div id="chart_mixed_1" class="flotchart-holder" style="height: 182px"></div>\\n\\t\\t\\t\\t\\t\\t\\t\\t\\t\\t</div>\\n\\t\\t\\t\\t\\t\\t\\t\\t\\t</div>\\n\\t\\t\\t\\t\\t\\t\\t\\t</div>\\n\\t\\t\\t\\t\\t\\t\\t</div>\\n\\t\\t\\t\\t\\t\\t\\t<!-- //Row -->\\n\\t\\t\\t\\t\\t\\t\\t<!-- Widget\\t -->\\n\\t\\t\\t\\t\\t\\t\\t<div class="widget">\\n\\t\\t\\t\\t\\t\\t\\t\\t<div class="widget-head innerAll half">\\n\\t\\t\\t\\t\\t\\t\\t\\t\\t<h4 class="margin-none"><i class="fa fa-fw icon-star"></i> Trends</h4>\\n\\t\\t\\t\\t\\t\\t\\t\\t</div>\\n\\t\\t\\t\\t\\t\\t\\t\\t<!-- Widget -->\\n\\t\\t\\t\\t\\t\\t\\t\\t<div class="widget-body innerAll inner-2x">\\n\\t\\t\\t\\t\\t\\t\\t\\t\\t<table class="table table-striped margin-none">\\n\\t\\t\\t\\t\\t\\t\\t\\t\\t\\t<thead>\\n\\t\\t\\t\\t\\t\\t\\t\\t\\t\\t\\t<tr>\\n\\t\\t\\t\\t\\t\\t\\t\\t\\t\\t\\t\\t<th>Box office</th>\\n\\t\\t\\t\\t\\t\\t\\t\\t\\t\\t\\t\\t<th class="text-center">Cash</th>\\n\\t\\t\\t\\t\\t\\t\\t\\t\\t\\t\\t\\t<th class="text-right" style="width: 100px;">Trend</th>\\n\\t\\t\\t\\t\\t\\t\\t\\t\\t\\t\\t</tr>\\n\\t\\t\\t\\t\\t\\t\\t\\t\\t\\t</thead>\\n\\t\\t\\t\\t\\t\\t\\t\\t\\t\\t<tbody>\\n\\t\\t\\t\\t\\t\\t\\t\\t\\t\\t\\t<tr>\\n\\t\\t\\t\\t\\t\\t\\t\\t\\t\\t\\t\\t<td><strong>1.</strong>Frozen</td>\\n\\t\\t\\t\\t\\t\\t\\t\\t\\t\\t\\t\\t<td class="text-center">&euro;8,718,939</td>\\n\\t\\t\\t\\t\\t\\t\\t\\t\\t\\t\\t\\t<td class="text-right"><div class="sparkline" style="width: 100px;" sparkHeight="20" sparkType="line"\\n\\t\\t\\t\\t\\t\\t\\t\\t\\t\\t\\t\\tsparkWidth="100%" sparkLineWidth="2"\\n\\t\\t\\t\\t\\t\\t\\t\\t\\t\\t\\t\\tsparkLineColor="#3695d5" sparkFillColor=""\\n\\t\\t\\t\\t\\t\\t\\t\\t\\t\\t\\t\\tdata-data="[234,411,256,364,210,149,471,484,271,107]"></div></td>\\n\\t\\t\\t\\t\\t\\t\\t\\t\\t\\t\\t</tr>\\n\\t\\t\\t\\t\\t\\t\\t\\t\\t\\t\\t<tr>\\n\\t\\t\\t\\t\\t\\t\\t\\t\\t\\t\\t\\t<td><strong>2.</strong>The Hobbit 2</td>\\n\\t\\t\\t\\t\\t\\t\\t\\t\\t\\t\\t\\t<td class="text-center">&euro;7,800,000</td>\\n\\t\\t\\t\\t\\t\\t\\t\\t\\t\\t\\t\\t<td class="text-right"><div class="sparkline" style="width: 100px;" sparkHeight="20" sparkType="line"\\n\\t\\t\\t\\t\\t\\t\\t\\t\\t\\t\\t\\tsparkWidth="100%" sparkLineWidth="2"\\n\\t\\t\\t\\t\\t\\t\\t\\t\\t\\t\\t\\tsparkLineColor="#3695d5" sparkFillColor=""\\n\\t\\t\\t\\t\\t\\t\\t\\t\\t\\t\\t\\tdata-data="[348,417,191,457,422,127,469,103,458,197]"></div></td>\\n\\t\\t\\t\\t\\t\\t\\t\\t\\t\\t\\t</tr>\\n\\t\\t\\t\\t\\t\\t\\t\\t\\t\\t\\t<tr>\\n\\t\\t\\t\\t\\t\\t\\t\\t\\t\\t\\t\\t<td><strong>3.</strong>The Wolf of Wall Street</td>\\n\\t\\t\\t\\t\\t\\t\\t\\t\\t\\t\\t\\t<td class="text-center">&euro;5,671,036</td>\\n\\t\\t\\t\\t\\t\\t\\t\\t\\t\\t\\t\\t<td class="text-right"><div class="sparkline" style="width: 100px;" sparkHeight="20" sparkType="line"\\n\\t\\t\\t\\t\\t\\t\\t\\t\\t\\t\\t\\tsparkWidth="100%" sparkLineWidth="2"\\n\\t\\t\\t\\t\\t\\t\\t\\t\\t\\t\\t\\tsparkLineColor="#3695d5" sparkFillColor=""\\n\\t\\t\\t\\t\\t\\t\\t\\t\\t\\t\\t\\tdata-data="[339,237,103,112,287,398,295,493,368,209]"></div></td>\\n\\t\\t\\t\\t\\t\\t\\t\\t\\t\\t\\t</tr>\\n\\t\\t\\t\\t\\t\\t\\t\\t\\t\\t\\t<tr>\\n\\t\\t\\t\\t\\t\\t\\t\\t\\t\\t\\t\\t<td><strong>4.</strong>Iron Man 3</td>\\n\\t\\t\\t\\t\\t\\t\\t\\t\\t\\t\\t\\t<td class="text-center">&euro;409,013,994</td>\\n\\t\\t\\t\\t\\t\\t\\t\\t\\t\\t\\t\\t<td class="text-right"><div class="sparkline" style="width: 100px;" sparkHeight="20" sparkType="line"\\n\\t\\t\\t\\t\\t\\t\\t\\t\\t\\t\\t\\tsparkWidth="100%" sparkLineWidth="2"\\n\\t\\t\\t\\t\\t\\t\\t\\t\\t\\t\\t\\tsparkLineColor="#3695d5" sparkFillColor=""\\n\\t\\t\\t\\t\\t\\t\\t\\t\\t\\t\\t\\tdata-data="[108,415,103,280,158,393,211,172,208,431]"></div></td>\\n\\t\\t\\t\\t\\t\\t\\t\\t\\t\\t\\t</tr>\\n\\t\\t\\t\\t\\t\\t\\t\\t\\t\\t\\t<tr>\\n\\t\\t\\t\\t\\t\\t\\t\\t\\t\\t\\t\\t<td><strong>5.</strong>Catching Fire</td>\\n\\t\\t\\t\\t\\t\\t\\t\\t\\t\\t\\t\\t<td class="text-center">&euro;398,327,026</td>\\n\\t\\t\\t\\t\\t\\t\\t\\t\\t\\t\\t\\t<td class="text-right"><div class="sparkline" style="width: 100px;" sparkHeight="20" sparkType="line"\\n\\t\\t\\t\\t\\t\\t\\t\\t\\t\\t\\t\\tsparkWidth="100%" sparkLineWidth="2"\\n\\t\\t\\t\\t\\t\\t\\t\\t\\t\\t\\t\\tsparkLineColor="#3695d5" sparkFillColor=""\\n\\t\\t\\t\\t\\t\\t\\t\\t\\t\\t\\t\\tdata-data="[371,389,208,141,179,156,243,211,153,200]"></div></td>\\n\\t\\t\\t\\t\\t\\t\\t\\t\\t\\t\\t</tr>\\n\\t\\t\\t\\t\\t\\t\\t\\t\\t\\t\\t<tr>\\n\\t\\t\\t\\t\\t\\t\\t\\t\\t\\t\\t\\t<td><strong>6.</strong>Despicable Me 2</td>\\n\\t\\t\\t\\t\\t\\t\\t\\t\\t\\t\\t\\t<td class="text-center">&euro;367,835,345</td>\\n\\t\\t\\t\\t\\t\\t\\t\\t\\t\\t\\t\\t<td class="text-right"><div class="sparkline" style="width: 100px;" sparkHeight="20" sparkType="line"\\n\\t\\t\\t\\t\\t\\t\\t\\t\\t\\t\\t\\tsparkWidth="100%" sparkLineWidth="2"\\n\\t\\t\\t\\t\\t\\t\\t\\t\\t\\t\\t\\tsparkLineColor="#3695d5" sparkFillColor=""\\n\\t\\t\\t\\t\\t\\t\\t\\t\\t\\t\\t\\tdata-data="[200,365,202,215,186,114,296,138,293,304]"></div></td>\\n\\t\\t\\t\\t\\t\\t\\t\\t\\t\\t\\t</tr>\\n\\t\\t\\t\\t\\t\\t\\t\\t\\t\\t</tbody>\\n\\t\\t\\t\\t\\t\\t\\t\\t\\t</table>\\n\\t\\t\\t\\t\\t\\t\\t\\t</div>\\n\\t\\t\\t\\t\\t\\t\\t\\t<!-- // End Widget Body -->\\n\\t\\t\\t\\t\\t\\t\\t</div>\\n\\t\\t\\t\\t\\t\\t\\t<!-- // End Widget -->\\n\\t\\t\\t\\t\\t\\t\\t<!-- Widget\\t -->\\n\\t\\t\\t\\t\\t\\t\\t<div class="widget widget-body-white overflow-hidden">\\n\\t\\t\\t\\t\\t\\t\\t\\t<div class="widget-head innerAll half">\\n\\t\\t\\t\\t\\t\\t\\t\\t\\t<h4 class="margin-none"><i class="fa fa-fw icon-wallet"></i> Sales Volume</h4>\\n\\t\\t\\t\\t\\t\\t\\t\\t</div>\\n\\t\\t\\t\\t\\t\\t\\t\\t<div class="widget-body innerAll">\\n\\t\\t\\t\\t\\t\\t\\t\\t\\t<!-- Horizontal Bars Chart -->\\n\\t\\t\\t\\t\\t\\t\\t\\t\\t<div id="chart_horizontal_bars" class="flotchart-holder"></div>\\n\\t\\t\\t\\t\\t\\t\\t\\t</div>\\n\\t\\t\\t\\t\\t\\t\\t</div>\\n\\t\\t\\t\\t\\t\\t\\t<!-- //Widget -->\\n\\t\\t\\t\\t\\t\\t</div>\\n\\t\\t\\t\\t\\t\\t<!-- //  End Col -->\\n\\t\\t\\t\\t\\t\\t<div class="col-md-4">\\n\\t\\t\\t\\t\\t\\t\\t<!-- Widget -->\\n\\t\\t\\t\\t\\t\\t\\t<div class="widget widget-body-gray">\\n\\t\\t\\t\\t\\t\\t\\t\\t<div class="widget-body padding-none">\\n\\t\\t\\t\\t\\t\\t\\t\\t\\t<div class="bg-primary innerAll">\\n\\t\\t\\t\\t\\t\\t\\t\\t\\t\\t<div class="text-large text-white pull-right">\\n\\t\\t\\t\\t\\t\\t\\t\\t\\t\\t\\t&euro;1000\\n\\t\\t\\t\\t\\t\\t\\t\\t\\t\\t</div>\\n\\t\\t\\t\\t\\t\\t\\t\\t\\t\\t<h4 class="text-white strong text-medium">Earnings</h4>\\n\\t\\t\\t\\t\\t\\t\\t\\t\\t\\t<h5 class="text-white margin-none">Today\\\'s earnings</h5>\\n\\t\\t\\t\\t\\t\\t\\t\\t\\t\\t<div class="separator bottom"></div>\\n\\t\\t\\t\\t\\t\\t\\t\\t\\t\\t<div class="progress primary progress-mini  margin-none">\\n\\t\\t\\t\\t\\t\\t\\t\\t\\t\\t\\t<div class="progress-bar progress-bar-white\\t" style="width: 70%;"></div>\\n\\t\\t\\t\\t\\t\\t\\t\\t\\t\\t</div>\\n\\t\\t\\t\\t\\t\\t\\t\\t\\t</div>\\n\\t\\t\\t\\t\\t\\t\\t\\t</div>\\n\\t\\t\\t\\t\\t\\t\\t</div>\\n\\t\\t\\t\\t\\t\\t\\t<!-- //End Widget -->\\n\\t\\t\\t\\t\\t\\t\\t<!-- Widget -->\\n\\t\\t\\t\\t\\t\\t\\t<div class="widget widget-body-gray">\\n\\t\\t\\t\\t\\t\\t\\t\\t<div class="innerAll half border-bottom">\\n\\t\\t\\t\\t\\t\\t\\t\\t\\t<div class="btn-group btn-group-sm pull-right">\\n\\t\\t\\t\\t\\t\\t\\t\\t\\t\\t<button data-toggle="dropdown" class="btn btn-primary dropdown-toggle">\\n\\t\\t\\t\\t\\t\\t\\t\\t\\t\\t\\tMonthly <span class="caret"></span>\\n\\t\\t\\t\\t\\t\\t\\t\\t\\t\\t</button>\\n\\t\\t\\t\\t\\t\\t\\t\\t\\t\\t<ul class="dropdown-menu">\\n\\t\\t\\t\\t\\t\\t\\t\\t\\t\\t\\t<li class="active">\\n\\t\\t\\t\\t\\t\\t\\t\\t\\t\\t\\t\\t<a href="">Monthly</a>\\n\\t\\t\\t\\t\\t\\t\\t\\t\\t\\t\\t</li>\\n\\t\\t\\t\\t\\t\\t\\t\\t\\t\\t\\t<li>\\n\\t\\t\\t\\t\\t\\t\\t\\t\\t\\t\\t\\t<a href="">Quarterly</a>\\n\\t\\t\\t\\t\\t\\t\\t\\t\\t\\t\\t</li>\\n\\t\\t\\t\\t\\t\\t\\t\\t\\t\\t\\t<li>\\n\\t\\t\\t\\t\\t\\t\\t\\t\\t\\t\\t\\t<a href="">Yearly</a>\\n\\t\\t\\t\\t\\t\\t\\t\\t\\t\\t\\t</li>\\n\\t\\t\\t\\t\\t\\t\\t\\t\\t\\t</ul>\\n\\t\\t\\t\\t\\t\\t\\t\\t\\t</div>\\n\\t\\t\\t\\t\\t\\t\\t\\t\\t<h4 class="innerT half margin-none pull-left">Monthly Spend</h4>\\n\\t\\t\\t\\t\\t\\t\\t\\t\\t<div class="clearfix"></div>\\n\\t\\t\\t\\t\\t\\t\\t\\t</div>\\n\\t\\t\\t\\t\\t\\t\\t\\t<div class="widget-body">\\n\\t\\t\\t\\t\\t\\t\\t\\t\\t<p class="margin-none">\\n\\t\\t\\t\\t\\t\\t\\t\\t\\t\\tLorem ipsum dolor sit amet, consectetur adipisicing\\n\\t\\t\\t\\t\\t\\t\\t\\t\\t\\telit. Quod, ipsam, minus nam consequatur aliquid\\n\\t\\t\\t\\t\\t\\t\\t\\t\\t\\tsint.\\n\\t\\t\\t\\t\\t\\t\\t\\t\\t</p>\\n\\t\\t\\t\\t\\t\\t\\t\\t</div>\\n\\t\\t\\t\\t\\t\\t\\t\\t<div class="innerAll ">\\n\\t\\t\\t\\t\\t\\t\\t\\t\\t<p class="text-large">\\n\\t\\t\\t\\t\\t\\t\\t\\t\\t\\t&euro;3,204.89\\n\\t\\t\\t\\t\\t\\t\\t\\t\\t</p>\\n\\t\\t\\t\\t\\t\\t\\t\\t\\t<div class="progress">\\n\\t\\t\\t\\t\\t\\t\\t\\t\\t\\t<div class="progress-bar progress-bar-primary" role="progressbar" aria-valuenow="40"\\n\\t\\t\\t\\t\\t\\t\\t\\t\\t\\taria-valuemin="0" aria-valuemax="100" style="width: 40%">\\n\\t\\t\\t\\t\\t\\t\\t\\t\\t\\t\\t<span class="sr-only">40% from last month</span>\\n\\t\\t\\t\\t\\t\\t\\t\\t\\t\\t</div>\\n\\t\\t\\t\\t\\t\\t\\t\\t\\t</div>\\n\\t\\t\\t\\t\\t\\t\\t\\t\\t<div class="text-right">\\n\\t\\t\\t\\t\\t\\t\\t\\t\\t\\t<p class="strong margin-none">\\n\\t\\t\\t\\t\\t\\t\\t\\t\\t\\t\\t&euro;5,127.82\\n\\t\\t\\t\\t\\t\\t\\t\\t\\t\\t</p>\\n\\t\\t\\t\\t\\t\\t\\t\\t\\t\\t<p>\\n\\t\\t\\t\\t\\t\\t\\t\\t\\t\\t\\t<em>Previus month bill</em>\\n\\t\\t\\t\\t\\t\\t\\t\\t\\t\\t</p>\\n\\t\\t\\t\\t\\t\\t\\t\\t\\t</div>\\n\\t\\t\\t\\t\\t\\t\\t\\t</div>\\n\\t\\t\\t\\t\\t\\t\\t</div>\\n\\t\\t\\t\\t\\t\\t\\t<!-- //End Widget -->\\n\\t\\t\\t\\t\\t\\t\\t<!-- Widget\\t -->\\n\\t\\t\\t\\t\\t\\t\\t<div class="widget">\\n\\t\\t\\t\\t\\t\\t\\t\\t<div class="widget-head">\\n\\t\\t\\t\\t\\t\\t\\t\\t\\t<h4 class="innerAll half"><i class="fa fa-fw icon-worldwide"></i> Demographic</h4>\\n\\t\\t\\t\\t\\t\\t\\t\\t</div>\\n\\t\\t\\t\\t\\t\\t\\t\\t<div class="bg-white border-bottom text-center">\\n\\t\\t\\t\\t\\t\\t\\t\\t\\t<div id="world-map-markers" style="height: 200px"></div>\\n\\t\\t\\t\\t\\t\\t\\t\\t</div>\\n\\t\\t\\t\\t\\t\\t\\t\\t<ul class="list-unstyled">\\n\\t\\t\\t\\t\\t\\t\\t\\t\\t<li class="innerAll border-bottom">\\n\\t\\t\\t\\t\\t\\t\\t\\t\\t\\t<div class="pull-right strong">\\n\\t\\t\\t\\t\\t\\t\\t\\t\\t\\t\\t1249\\n\\t\\t\\t\\t\\t\\t\\t\\t\\t\\t</div><i class="fa fa-fw fa-circle text-info"></i> Miami\\n\\t\\t\\t\\t\\t\\t\\t\\t\\t</li>\\n\\t\\t\\t\\t\\t\\t\\t\\t\\t<li class="innerAll border-bottom">\\n\\t\\t\\t\\t\\t\\t\\t\\t\\t\\t<div class="pull-right strong">\\n\\t\\t\\t\\t\\t\\t\\t\\t\\t\\t\\t892\\n\\t\\t\\t\\t\\t\\t\\t\\t\\t\\t</div><i class="fa fa-fw fa-circle text-success"></i> Chicago\\n\\t\\t\\t\\t\\t\\t\\t\\t\\t</li>\\n\\t\\t\\t\\t\\t\\t\\t\\t\\t<li class="innerAll border-bottom">\\n\\t\\t\\t\\t\\t\\t\\t\\t\\t\\t<div class="pull-right strong">\\n\\t\\t\\t\\t\\t\\t\\t\\t\\t\\t\\t530\\n\\t\\t\\t\\t\\t\\t\\t\\t\\t\\t</div><i class="fa fa-fw fa-circle text-primary"></i> Michigan\\n\\t\\t\\t\\t\\t\\t\\t\\t\\t</li>\\n\\t\\t\\t\\t\\t\\t\\t\\t\\t<li class="innerAll">\\n\\t\\t\\t\\t\\t\\t\\t\\t\\t\\t<div class="pull-right strong">\\n\\t\\t\\t\\t\\t\\t\\t\\t\\t\\t\\t380\\n\\t\\t\\t\\t\\t\\t\\t\\t\\t\\t</div><i class="fa fa-fw fa-circle"></i> Boston\\n\\t\\t\\t\\t\\t\\t\\t\\t\\t</li>\\n\\t\\t\\t\\t\\t\\t\\t\\t</ul>\\n\\t\\t\\t\\t\\t\\t\\t</div>\\n\\t\\t\\t\\t\\t\\t\\t<!-- //Widget -->\\n\\t\\t\\t\\t\\t\\t\\t<!-- Widget -->\\n\\t\\t\\t\\t\\t\\t\\t<div class="widget">\\n\\t\\t\\t\\t\\t\\t\\t\\t<div class="row row-merge">\\n\\t\\t\\t\\t\\t\\t\\t\\t\\t<div class="col-md-4 bg-gray">\\n\\t\\t\\t\\t\\t\\t\\t\\t\\t\\t<div class="innerAll inner-2x text-center">\\n\\t\\t\\t\\t\\t\\t\\t\\t\\t\\t\\t<div class="sparkline" sparkHeight="74" data-colors="#cacaca, #4a8bc2,#609450,#cacaca">\\n\\t\\t\\t\\t\\t\\t\\t\\t\\t\\t\\t\\t1,4,3,8\\n\\t\\t\\t\\t\\t\\t\\t\\t\\t\\t\\t</div>\\n\\t\\t\\t\\t\\t\\t\\t\\t\\t\\t</div>\\n\\t\\t\\t\\t\\t\\t\\t\\t\\t</div>\\n\\t\\t\\t\\t\\t\\t\\t\\t\\t<div class="col-md-8">\\n\\t\\t\\t\\t\\t\\t\\t\\t\\t\\t<div class="innerAll">\\n\\t\\t\\t\\t\\t\\t\\t\\t\\t\\t\\t<ul class="list-unstyled">\\n\\t\\t\\t\\t\\t\\t\\t\\t\\t\\t\\t\\t<li class="innerAll half">\\n\\t\\t\\t\\t\\t\\t\\t\\t\\t\\t\\t\\t\\t<i class="fa fa-fw fa-square text-info"></i>\\n\\t\\t\\t\\t\\t\\t\\t\\t\\t\\t\\t\\t\\t<span class="strong">5,931</span>Visits\\n\\t\\t\\t\\t\\t\\t\\t\\t\\t\\t\\t\\t</li>\\n\\t\\t\\t\\t\\t\\t\\t\\t\\t\\t\\t\\t<li class="innerAll half">\\n\\t\\t\\t\\t\\t\\t\\t\\t\\t\\t\\t\\t\\t<i class="fa fa-fw fa-square text-success"></i>\\n\\t\\t\\t\\t\\t\\t\\t\\t\\t\\t\\t\\t\\t<span class="strong">402</span>Conversions\\n\\t\\t\\t\\t\\t\\t\\t\\t\\t\\t\\t\\t</li>\\n\\t\\t\\t\\t\\t\\t\\t\\t\\t\\t\\t\\t<li class="innerAll half">\\n\\t\\t\\t\\t\\t\\t\\t\\t\\t\\t\\t\\t\\t<i class="fa fa-fw fa-square text-muted"></i>\\n\\t\\t\\t\\t\\t\\t\\t\\t\\t\\t\\t\\t\\t<span class="strong">15,120</span>Pageviews\\n\\t\\t\\t\\t\\t\\t\\t\\t\\t\\t\\t\\t</li>\\n\\t\\t\\t\\t\\t\\t\\t\\t\\t\\t\\t</ul>\\n\\t\\t\\t\\t\\t\\t\\t\\t\\t\\t</div>\\n\\t\\t\\t\\t\\t\\t\\t\\t\\t</div>\\n\\t\\t\\t\\t\\t\\t\\t\\t</div>\\n\\t\\t\\t\\t\\t\\t\\t</div>\\n\\t\\t\\t\\t\\t\\t\\t<!-- //End Widget -->\\n\\t\\t\\t\\t\\t\\t\\t<!-- Widget -->\\n\\t\\t\\t\\t\\t\\t\\t<div class="widget widget-body-gray">\\n\\t\\t\\t\\t\\t\\t\\t\\t<div class=" innerAll half border-bottom">\\n\\t\\t\\t\\t\\t\\t\\t\\t\\t<div class="btn-group btn-group-sm pull-right">\\n\\t\\t\\t\\t\\t\\t\\t\\t\\t\\t<button class="btn btn-primary dropdown-toggle" data-toggle="dropdown">\\n\\t\\t\\t\\t\\t\\t\\t\\t\\t\\t\\tDay <span class="caret"></span>\\n\\t\\t\\t\\t\\t\\t\\t\\t\\t\\t</button>\\n\\t\\t\\t\\t\\t\\t\\t\\t\\t\\t<ul class="dropdown-menu" role="menu">\\n\\t\\t\\t\\t\\t\\t\\t\\t\\t\\t\\t<li>\\n\\t\\t\\t\\t\\t\\t\\t\\t\\t\\t\\t\\t<a href="#">Day</a>\\n\\t\\t\\t\\t\\t\\t\\t\\t\\t\\t\\t</li>\\n\\t\\t\\t\\t\\t\\t\\t\\t\\t\\t\\t<li>\\n\\t\\t\\t\\t\\t\\t\\t\\t\\t\\t\\t\\t<a href="#">Week</a>\\n\\t\\t\\t\\t\\t\\t\\t\\t\\t\\t\\t</li>\\n\\t\\t\\t\\t\\t\\t\\t\\t\\t\\t\\t<li>\\n\\t\\t\\t\\t\\t\\t\\t\\t\\t\\t\\t\\t<a href="#">Month</a>\\n\\t\\t\\t\\t\\t\\t\\t\\t\\t\\t\\t</li>\\n\\t\\t\\t\\t\\t\\t\\t\\t\\t\\t</ul>\\n\\t\\t\\t\\t\\t\\t\\t\\t\\t</div>\\n\\t\\t\\t\\t\\t\\t\\t\\t\\t<h4 class="pull-left innerT half margin-none"><i class="fa fa-fw fa-money"></i> Earnings</h4>\\n\\t\\t\\t\\t\\t\\t\\t\\t\\t<div class="clearfix"></div>\\n\\t\\t\\t\\t\\t\\t\\t\\t</div>\\n\\t\\t\\t\\t\\t\\t\\t\\t<div class="innerAll border-bottom">\\n\\t\\t\\t\\t\\t\\t\\t\\t\\t<p class="margin-none">\\n\\t\\t\\t\\t\\t\\t\\t\\t\\t\\t<span class="strong">Today:</span>&euro;502.42 <i class="fa text-primary fa-fw fa-arrow-up"></i>\\n\\t\\t\\t\\t\\t\\t\\t\\t\\t\\t<span class="strong text-primary">4%</span>\\n\\t\\t\\t\\t\\t\\t\\t\\t\\t</p>\\n\\t\\t\\t\\t\\t\\t\\t\\t</div>\\n\\t\\t\\t\\t\\t\\t\\t\\t<div class="widget-body ">\\n\\t\\t\\t\\t\\t\\t\\t\\t\\t<div class="sparkline" sparkType="line" sparkResize="true" sparkHeight="76" sparkLineWidth="2"\\n\\t\\t\\t\\t\\t\\t\\t\\t\\tsparkWidth="100%" sparkLineColor="#3695d5" sparkSpotColor="#3695d5"\\n\\t\\t\\t\\t\\t\\t\\t\\t\\tsparkFillColor="" sparkHighlightLineColor="#7c7c7c"\\n\\t\\t\\t\\t\\t\\t\\t\\t\\tsparkHighlightSpotColor="#7c7c7c" sparkSpotRadius="4"\\n\\t\\t\\t\\t\\t\\t\\t\\t\\tsparkMinSpotColor="#b55151" sparkMaxSpotColor="#609450">\\n\\t\\t\\t\\t\\t\\t\\t\\t\\t\\t195,450,235,138,265,218,299,168,371,193\\n\\t\\t\\t\\t\\t\\t\\t\\t\\t</div>\\n\\t\\t\\t\\t\\t\\t\\t\\t</div>\\n\\t\\t\\t\\t\\t\\t\\t</div>\\n\\t\\t\\t\\t\\t\\t\\t<!-- //End Widget -->\\n\\t\\t\\t\\t\\t\\t</div>\\n\\t\\t\\t\\t\\t\\t<!-- //End Col -->\\n\\t\\t\\t\\t\\t</div>\\n\\t\\t\\t\\t</div>\\n\\t\\t\\t</div>\\n\\t\\t\\t<!-- // Content END -->\\n\\t\\t\\t<div class="clearfix"></div>\\n\\t\\t\\t<!-- // Sidebar menu & content wrapper END -->\\n\\t\\t\\t<div class="row">\\n\\t\\t\\t\\t<footer class="footer span12" id="footer">\\n\\t\\t\\t\\t\\t<div class="footer-content">\\n\\t\\t\\t\\t\\t\\t\', escape=False)\nresponse.write(\' <!-- this is default footer -->\\n\\t\\t\\t\\t\\t\\t<div class="copyright pull-left">\\n\\t\\t\\t\\t\\t\\t\\t\', escape=False)\nresponse.write(T(\'Copyright\'))\nresponse.write(\' &#169; \', escape=False)\nresponse.write(request.now.year)\nresponse.write(\' Wehrlem\\n\\t\\t\\t\\t\\t\\t</div>\\n\\t\\t\\t\\t\\t\\t<div id="poweredBy" class="pull-right">\\n\\n\\t\\t\\t\\t\\t\\t\\t<a href="http://www.unifr.ch/"><img class="img-responsive img-thumbnail" src="\', escape=False)\nresponse.write(URL(\'static\', \'images/unifr.png\'))\nresponse.write(\'" /></a>\\n\\t\\t\\t\\t\\t\\t</div>\\n\\t\\t\\t\\t\\t\\t\', escape=False)\nresponse.write(\'\\n\\t\\t\\t\\t\\t</div>\\n\\t\\t\\t\\t</footer>\\n\\t\\t\\t</div>\\n\\t\\t\\t<!-- // Footer END -->\\n\\t\\t</div>\\n\\t\\t<!-- // Main Container Fluid END -->\\n\\t\\t<!-- Global -->\\n\\n\\t\\t<!-- The javascript =============================================\\n\\t\\t(Placed at the end of the document so the pages load faster) -->\\n\\t\\t<script data-id="App.Config">\\n\\t\\t\\tvar basePath = \\\'\\\', commonPath = \\\'\\\', rootPath = "\', escape=False)\nresponse.write(URL(\'static\',\'\'))\nresponse.write(\'", DEV = true, componentsPath = "\', escape=False)\nresponse.write(URL(\'static\',\'components\'))\nresponse.write(\'";\\n\\t\\t\\tvar primaryColor = \\\'#3695d5\\\', dangerColor = \\\'#b55151\\\', successColor = \\\'#609450\\\', infoColor = \\\'#4a8bc2\\\', warningColor = \\\'#ab7a4b\\\', inverseColor = \\\'#45484d\\\';\\n\\t\\t\\tvar themerPrimaryColor = primaryColor;\\n\\t\\t\\tApp.Config = {\\n\\t\\t\\t\\tajaxify_menu_selectors : [\\\'#navbar\\\'],\\n\\t\\t\\t\\tajaxify_layout_app : false\\n\\t\\t\\t};\\n\\t\\t</script>\\n\\t\\t<script src="\', escape=False)\nresponse.write(URL(\'static\',\'js/web2py_bootstrap.js\'))\nresponse.write(\'"></script>\\n\\t\\t<!--[if lt IE 7 ]>\\n\\t\\t<script src="\', escape=False)\nresponse.write(URL(\'static\',\'js/dd_belatedpng.js\'))\nresponse.write(\'"></script>\\n\\t\\t<script> DD_belatedPNG.fix(\\\'img, .png_bg\\\'); //fix any <img> or .png_bg background-images </script>\\n\\t\\t<![endif]-->\\n\\n\\t\\t\', escape=False)\nif response.google_analytics_id:\n    response.write(\'\\n\\n\\t\\t<script src="\', escape=False)\n    response.write(URL(\'static\',\'js/analytics.min.js\'))\n    response.write(\'"></script>\\n\\t\\t<script type="text/javascript">\\n\\t\\t\\tanalytics.initialize({\\n\\t\\t\\t\\t\\\'Google Analytics\\\' : {\\n\\t\\t\\t\\t\\ttrackingId : \\\'\', escape=False)\n    response.write(response.google_analytics_id)\n    response.write("\'\\n\\t\\t\\t\\t}\\n\\t\\t\\t});\\n\\t\\t</script>\\n\\t\\t", escape=False)\n    pass\nresponse.write(\'\\n\\t\\t<script src="\', escape=False)\nresponse.write(URL(\'static\',\'js/share.js\',vars=dict(static=URL(\'static\',\'images\'))))\nresponse.write(\'"></script>\\n\\t</body>\\n</html>\\n\\n\', escape=False)'
p7
sS'snapshot'
p8
(dp9
S'exception'
p10
(dp11
S'__hash__'
p12
S"<method-wrapper '__hash__' of exceptions.NameError object>"
p13
sS'__setattr__'
p14
S"<method-wrapper '__setattr__' of exceptions.NameError object>"
p15
sS'__reduce_ex__'
p16
S'<built-in method __reduce_ex__ of exceptions.NameError object>'
p17
sS'__getslice__'
p18
S"<method-wrapper '__getslice__' of exceptions.NameError object>"
p19
sS'__getitem__'
p20
S"<method-wrapper '__getitem__' of exceptions.NameError object>"
p21
sS'__setstate__'
p22
S'<built-in method __setstate__ of exceptions.NameError object>'
p23
sS'args'
p24
S'("name \'is_mobile\' is not defined",)'
p25
sS'__reduce__'
p26
S'<built-in method __reduce__ of exceptions.NameError object>'
p27
sS'__str__'
p28
S"<method-wrapper '__str__' of exceptions.NameError object>"
p29
sS'__format__'
p30
S'<built-in method __format__ of exceptions.NameError object>'
p31
sS'__getattribute__'
p32
S"<method-wrapper '__getattribute__' of exceptions.NameError object>"
p33
sS'__class__'
p34
S"<type 'exceptions.NameError'>"
p35
sS'__unicode__'
p36
S'<built-in method __unicode__ of exceptions.NameError object>'
p37
sS'__delattr__'
p38
S"<method-wrapper '__delattr__' of exceptions.NameError object>"
p39
sS'__subclasshook__'
p40
S'<built-in method __subclasshook__ of type object>'
p41
sS'__repr__'
p42
S"<method-wrapper '__repr__' of exceptions.NameError object>"
p43
sS'__dict__'
p44
S'{}'
p45
sS'__sizeof__'
p46
S'<built-in method __sizeof__ of exceptions.NameError object>'
p47
sS'__doc__'
p48
S"'Name not found globally.'"
p49
sS'__init__'
p50
S"<method-wrapper '__init__' of exceptions.NameError object>"
p51
sS'__new__'
p52
S'<built-in method __new__ of type object>'
p53
ssS'evalue'
p54
S"name 'is_mobile' is not defined"
p55
sS'request'
p56
cgluon.html
XML_unpickle
p57
(S's\xa9V\x00\x00<div><table><tr><td style="font-weight:bold;vertical-align:top;">ajax</td><td style="vertical-align:top;">:</td><td><div>False</div></td></tr><tr><td style="font-weight:bold;vertical-align:top;">application</td><td style="vertical-align:top;">:</td><td><div>KTI</div></td></tr><tr><td style="font-weight:bold;vertical-align:top;">args</td><td style="vertical-align:top;">:</td><td><div><table></table></div></td></tr><tr><td style="font-weight:bold;vertical-align:top;">cid</td><td style="vertical-align:top;">:</td><td><div>None</div></td></tr><tr><td style="font-weight:bold;vertical-align:top;">client</td><td style="vertical-align:top;">:</td><td><div>127.0.0.1</div></td></tr><tr><td style="font-weight:bold;vertical-align:top;">controller</td><td style="vertical-align:top;">:</td><td><div>default</div></td></tr><tr><td style="font-weight:bold;vertical-align:top;">cookies</td><td style="vertical-align:top;">:</td><td><div><table><tr><td style="font-weight:bold;vertical-align:top;">session_id_admin</td><td style="vertical-align:top;">:</td><td><div>127.0.0.1-83bc0eb3-575d-4449-b15a-bfe7b6bd7361<table><tr><td style="font-weight:bold;vertical-align:top;">comment</td><td style="vertical-align:top;">:</td><td><div></div></td></tr><tr><td style="font-weight:bold;vertical-align:top;">domain</td><td style="vertical-align:top;">:</td><td><div></div></td></tr><tr><td style="font-weight:bold;vertical-align:top;">expires</td><td style="vertical-align:top;">:</td><td><div></div></td></tr><tr><td style="font-weight:bold;vertical-align:top;">httponly</td><td style="vertical-align:top;">:</td><td><div></div></td></tr><tr><td style="font-weight:bold;vertical-align:top;">max-age</td><td style="vertical-align:top;">:</td><td><div></div></td></tr><tr><td style="font-weight:bold;vertical-align:top;">path</td><td style="vertical-align:top;">:</td><td><div></div></td></tr><tr><td style="font-weight:bold;vertical-align:top;">secure</td><td style="vertical-align:top;">:</td><td><div></div></td></tr><tr><td style="font-weight:bold;vertical-align:top;">version</td><td style="vertical-align:top;">:</td><td><div></div></td></tr></table></div></td></tr><tr><td style="font-weight:bold;vertical-align:top;">session_id_kti</td><td style="vertical-align:top;">:</td><td><div>127.0.0.1-29bacbf7-edb1-40f9-b688-b607c194111e<table><tr><td style="font-weight:bold;vertical-align:top;">comment</td><td style="vertical-align:top;">:</td><td><div></div></td></tr><tr><td style="font-weight:bold;vertical-align:top;">domain</td><td style="vertical-align:top;">:</td><td><div></div></td></tr><tr><td style="font-weight:bold;vertical-align:top;">expires</td><td style="vertical-align:top;">:</td><td><div></div></td></tr><tr><td style="font-weight:bold;vertical-align:top;">httponly</td><td style="vertical-align:top;">:</td><td><div></div></td></tr><tr><td style="font-weight:bold;vertical-align:top;">max-age</td><td style="vertical-align:top;">:</td><td><div></div></td></tr><tr><td style="font-weight:bold;vertical-align:top;">path</td><td style="vertical-align:top;">:</td><td><div></div></td></tr><tr><td style="font-weight:bold;vertical-align:top;">secure</td><td style="vertical-align:top;">:</td><td><div></div></td></tr><tr><td style="font-weight:bold;vertical-align:top;">version</td><td style="vertical-align:top;">:</td><td><div></div></td></tr></table></div></td></tr></table></div></td></tr><tr><td style="font-weight:bold;vertical-align:top;">env</td><td style="vertical-align:top;">:</td><td><div><table><tr><td style="font-weight:bold;vertical-align:top;">HTTP_ACCEPT</td><td style="vertical-align:top;">:</td><td><div>text/html,application/xhtml+xml,application/xml;q=0.9,image/webp,*/*;q=0.8</div></td></tr><tr><td style="font-weight:bold;vertical-align:top;">HTTP_ACCEPT_ENCODING</td><td style="vertical-align:top;">:</td><td><div>gzip,deflate,sdch</div></td></tr><tr><td style="font-weight:bold;vertical-align:top;">HTTP_ACCEPT_LANGUAGE</td><td style="vertical-align:top;">:</td><td><div>de-DE,de;q=0.8,en-US;q=0.6,en;q=0.4</div></td></tr><tr><td style="font-weight:bold;vertical-align:top;">HTTP_CACHE_CONTROL</td><td style="vertical-align:top;">:</td><td><div>max-age=0</div></td></tr><tr><td style="font-weight:bold;vertical-align:top;">HTTP_CONNECTION</td><td style="vertical-align:top;">:</td><td><div>keep-alive</div></td></tr><tr><td style="font-weight:bold;vertical-align:top;">HTTP_COOKIE</td><td style="vertical-align:top;">:</td><td><div>session_id_admin=127.0.0.1-83bc0eb3-575d-4449-b15a-bfe7b6bd7361; session_id_kti=127.0.0.1-29bacbf7-edb1-40f9-b688-b607c194111e</div></td></tr><tr><td style="font-weight:bold;vertical-align:top;">HTTP_HOST</td><td style="vertical-align:top;">:</td><td><div>127.0.0.1:8000</div></td></tr><tr><td style="font-weight:bold;vertical-align:top;">HTTP_REFERER</td><td style="vertical-align:top;">:</td><td><div>http://127.0.0.1:8000/KTI/default/index</div></td></tr><tr><td style="font-weight:bold;vertical-align:top;">HTTP_USER_AGENT</td><td style="vertical-align:top;">:</td><td><div>Mozilla/5.0 (Macintosh; Intel Mac OS X 10_9_2) AppleWebKit/537.36 (KHTML, like Gecko) Chrome/34.0.1847.116 Safari/537.36</div></td></tr><tr><td style="font-weight:bold;vertical-align:top;">PATH_INFO</td><td style="vertical-align:top;">:</td><td><div>/KTI/default/index</div></td></tr><tr><td style="font-weight:bold;vertical-align:top;">QUERY_STRING</td><td style="vertical-align:top;">:</td><td><div></div></td></tr><tr><td style="font-weight:bold;vertical-align:top;">REMOTE_ADDR</td><td style="vertical-align:top;">:</td><td><div>127.0.0.1</div></td></tr><tr><td style="font-weight:bold;vertical-align:top;">REMOTE_PORT</td><td style="vertical-align:top;">:</td><td><div>49257</div></td></tr><tr><td style="font-weight:bold;vertical-align:top;">REQUEST_METHOD</td><td style="vertical-align:top;">:</td><td><div>GET</div></td></tr><tr><td style="font-weight:bold;vertical-align:top;">SCRIPT_NAME</td><td style="vertical-align:top;">:</td><td><div></div></td></tr><tr><td style="font-weight:bold;vertical-align:top;">SERVER_NAME</td><td style="vertical-align:top;">:</td><td><div>Marcels-MacBook-Air.local</div></td></tr><tr><td style="font-weight:bold;vertical-align:top;">SERVER_PORT</td><td style="vertical-align:top;">:</td><td><div>8000</div></td></tr><tr><td style="font-weight:bold;vertical-align:top;">SERVER_PROTOCOL</td><td style="vertical-align:top;">:</td><td><div>HTTP/1.1</div></td></tr><tr><td style="font-weight:bold;vertical-align:top;">SERVER_SOFTWARE</td><td style="vertical-align:top;">:</td><td><div>Rocket 1.2.6</div></td></tr><tr><td style="font-weight:bold;vertical-align:top;">app_folders</td><td style="vertical-align:top;">:</td><td><div>set([&#x27;/Users/marcelwehrle/Virtualenvs/kti/web/applications/KTI/&#x27;, &#x27;/Users/marcelwehrle/Virtualenvs/kti/web/applications/admin/&#x27;])</div></td></tr><tr><td style="font-weight:bold;vertical-align:top;">applications_parent</td><td style="vertical-align:top;">:</td><td><div>/Users/marcelwehrle/Virtualenvs/kti/web</div></td></tr><tr><td style="font-weight:bold;vertical-align:top;">cmd_args</td><td style="vertical-align:top;">:</td><td><div><table></table></div></td></tr><tr><td style="font-weight:bold;vertical-align:top;">cmd_options</td><td style="vertical-align:top;">:</td><td><div>&lt;Values at 0x10bd6a320: {&#x27;verbose&#x27;: False, &#x27;ip&#x27;: &#x27;127.0.0.1&#x27;, &#x27;debuglevel&#x27;: 30, &#x27;with_scheduler&#x27;: False, &#x27;ips&#x27;: [], &#x27;shutdown_timeout&#x27;: 5, &#x27;taskbar&#x27;: False, &#x27;with_coverage&#x27;: False, &#x27;port&#x27;: 8000, &#x27;maxthreads&#x27;: None, &#x27;softcron&#x27;: False, &#x27;server_name&#x27;: &#x27;Marcels-MacBook-Air.local&#x27;, &#x27;bpython&#x27;: False, &#x27;nogui&#x27;: False, &#x27;pid_filename&#x27;: &#x27;httpserver.pid&#x27;, &#x27;extcron&#x27;: False, &#x27;runcron&#x27;: False, &#x27;run_system_tests&#x27;: False, &#x27;test&#x27;: None, &#x27;folder&#x27;: &#x27;/Users/marcelwehrle/Virtualenvs/kti/web&#x27;, &#x27;config&#x27;: &#x27;&#x27;, &#x27;minthreads&#x27;: None, &#x27;shell&#x27;: None, &#x27;run&#x27;: &#x27;&#x27;, &#x27;log_filename&#x27;: &#x27;httpserver.log&#x27;, &#x27;profiler_dir&#x27;: None, &#x27;args&#x27;: [&#x27;&#x27;], &#x27;socket_timeout&#x27;: 5, &#x27;ssl_ca_certificate&#x27;: None, &#x27;scheduler&#x27;: None, &#x27;interfaces&#x27;: None, &#x27;ssl_private_key&#x27;: &#x27;&#x27;, &#x27;scheduler_groups&#x27;: None, &#x27;password&#x27;: &#x27;&lt;ask&gt;&#x27;, &#x27;request_queue_size&#x27;: 5, &#x27;ssl_certificate&#x27;: &#x27;&#x27;, &#x27;cronjob&#x27;: False, &#x27;numthreads&#x27;: None, &#x27;quiet&#x27;: False, &#x27;import_models&#x27;: False, &#x27;timeout&#x27;: 10, &#x27;plain&#x27;: False, &#x27;nobanner&#x27;: False}&gt;</div></td></tr><tr><td style="font-weight:bold;vertical-align:top;">db_sessions</td><td style="vertical-align:top;">:</td><td><div>set([])</div></td></tr><tr><td style="font-weight:bold;vertical-align:top;">debugging</td><td style="vertical-align:top;">:</td><td><div>False</div></td></tr><tr><td style="font-weight:bold;vertical-align:top;">gluon_parent</td><td style="vertical-align:top;">:</td><td><div>/Users/marcelwehrle/Virtualenvs/kti/web</div></td></tr><tr><td style="font-weight:bold;vertical-align:top;">http_accept</td><td style="vertical-align:top;">:</td><td><div>text/html,application/xhtml+xml,application/xml;q=0.9,image/webp,*/*;q=0.8</div></td></tr><tr><td style="font-weight:bold;vertical-align:top;">http_accept_encoding</td><td style="vertical-align:top;">:</td><td><div>gzip,deflate,sdch</div></td></tr><tr><td style="font-weight:bold;vertical-align:top;">http_accept_language</td><td style="vertical-align:top;">:</td><td><div>de-DE,de;q=0.8,en-US;q=0.6,en;q=0.4</div></td></tr><tr><td style="font-weight:bold;vertical-align:top;">http_cache_control</td><td style="vertical-align:top;">:</td><td><div>max-age=0</div></td></tr><tr><td style="font-weight:bold;vertical-align:top;">http_connection</td><td style="vertical-align:top;">:</td><td><div>keep-alive</div></td></tr><tr><td style="font-weight:bold;vertical-align:top;">http_cookie</td><td style="vertical-align:top;">:</td><td><div>session_id_admin=127.0.0.1-83bc0eb3-575d-4449-b15a-bfe7b6bd7361; session_id_kti=127.0.0.1-29bacbf7-edb1-40f9-b688-b607c194111e</div></td></tr><tr><td style="font-weight:bold;vertical-align:top;">http_host</td><td style="vertical-align:top;">:</td><td><div>127.0.0.1:8000</div></td></tr><tr><td style="font-weight:bold;vertical-align:top;">http_referer</td><td style="vertical-align:top;">:</td><td><div>http://127.0.0.1:8000/KTI/default/index</div></td></tr><tr><td style="font-weight:bold;vertical-align:top;">http_user_agent</td><td style="vertical-align:top;">:</td><td><div>Mozilla/5.0 (Macintosh; Intel Mac OS X 10_9_2) AppleWebKit/537.36 (KHTML, like Gecko) Chrome/34.0.1847.116 Safari/537.36</div></td></tr><tr><td style="font-weight:bold;vertical-align:top;">is_jython</td><td style="vertical-align:top;">:</td><td><div>False</div></td></tr><tr><td style="font-weight:bold;vertical-align:top;">is_pypy</td><td style="vertical-align:top;">:</td><td><div>False</div></td></tr><tr><td style="font-weight:bold;vertical-align:top;">is_source</td><td style="vertical-align:top;">:</td><td><div>True</div></td></tr><tr><td style="font-weight:bold;vertical-align:top;">local_hosts</td><td style="vertical-align:top;">:</td><td><div><table><tr><td><div>::ffff:127.0.0.1</div></td></tr><tr><td><div>::1</div></td></tr><tr><td><div>fe80::1%lo0</div></td></tr><tr><td><div>1.0.0.127.in-addr.arpa</div></td></tr><tr><td><div>127.0.0.1</div></td></tr><tr><td><div>Marcels-MacBook-Air.local</div></td></tr></table></div></td></tr><tr><td style="font-weight:bold;vertical-align:top;">path_info</td><td style="vertical-align:top;">:</td><td><div>/KTI/default/index</div></td></tr><tr><td style="font-weight:bold;vertical-align:top;">query_string</td><td style="vertical-align:top;">:</td><td><div></div></td></tr><tr><td style="font-weight:bold;vertical-align:top;">remote_addr</td><td style="vertical-align:top;">:</td><td><div>127.0.0.1</div></td></tr><tr><td style="font-weight:bold;vertical-align:top;">remote_port</td><td style="vertical-align:top;">:</td><td><div>49257</div></td></tr><tr><td style="font-weight:bold;vertical-align:top;">request_method</td><td style="vertical-align:top;">:</td><td><div>GET</div></td></tr><tr><td style="font-weight:bold;vertical-align:top;">request_uri</td><td style="vertical-align:top;">:</td><td><div>/KTI/default/index</div></td></tr><tr><td style="font-weight:bold;vertical-align:top;">script_name</td><td style="vertical-align:top;">:</td><td><div></div></td></tr><tr><td style="font-weight:bold;vertical-align:top;">server_name</td><td style="vertical-align:top;">:</td><td><div>Marcels-MacBook-Air.local</div></td></tr><tr><td style="font-weight:bold;vertical-align:top;">server_port</td><td style="vertical-align:top;">:</td><td><div>8000</div></td></tr><tr><td style="font-weight:bold;vertical-align:top;">server_protocol</td><td style="vertical-align:top;">:</td><td><div>HTTP/1.1</div></td></tr><tr><td style="font-weight:bold;vertical-align:top;">server_software</td><td style="vertical-align:top;">:</td><td><div>Rocket 1.2.6</div></td></tr><tr><td style="font-weight:bold;vertical-align:top;">web2py_path</td><td style="vertical-align:top;">:</td><td><div>/Users/marcelwehrle/Virtualenvs/kti/web</div></td></tr><tr><td style="font-weight:bold;vertical-align:top;">web2py_version</td><td style="vertical-align:top;">:</td><td><div>2.9.5-stable+timestamp.2014.03.22.02.22.24</div></td></tr><tr><td style="font-weight:bold;vertical-align:top;">wsgi.errors</td><td style="vertical-align:top;">:</td><td><div>&lt;open file &#x27;&lt;stderr&gt;&#x27;, mode &#x27;w&#x27; at 0x10ae391e0&gt;</div></td></tr><tr><td style="font-weight:bold;vertical-align:top;">wsgi.file_wrapper</td><td style="vertical-align:top;">:</td><td><div>&lt;class wsgiref.util.FileWrapper at 0x10bade668&gt;</div></td></tr><tr><td style="font-weight:bold;vertical-align:top;">wsgi.input</td><td style="vertical-align:top;">:</td><td><div>&lt;socket._fileobject object at 0x1117c2cd0&gt;</div></td></tr><tr><td style="font-weight:bold;vertical-align:top;">wsgi.multiprocess</td><td style="vertical-align:top;">:</td><td><div>False</div></td></tr><tr><td style="font-weight:bold;vertical-align:top;">wsgi.multithread</td><td style="vertical-align:top;">:</td><td><div>True</div></td></tr><tr><td style="font-weight:bold;vertical-align:top;">wsgi.run_once</td><td style="vertical-align:top;">:</td><td><div>False</div></td></tr><tr><td style="font-weight:bold;vertical-align:top;">wsgi.url_scheme</td><td style="vertical-align:top;">:</td><td><div>http</div></td></tr><tr><td style="font-weight:bold;vertical-align:top;">wsgi.version</td><td style="vertical-align:top;">:</td><td><div><table><tr><td><div>1</div></td></tr><tr><td><div>0</div></td></tr></table></div></td></tr><tr><td style="font-weight:bold;vertical-align:top;">wsgi_errors</td><td style="vertical-align:top;">:</td><td><div>&lt;open file &#x27;&lt;stderr&gt;&#x27;, mode &#x27;w&#x27; at 0x10ae391e0&gt;</div></td></tr><tr><td style="font-weight:bold;vertical-align:top;">wsgi_file_wrapper</td><td style="vertical-align:top;">:</td><td><div>&lt;class wsgiref.util.FileWrapper at 0x10bade668&gt;</div></td></tr><tr><td style="font-weight:bold;vertical-align:top;">wsgi_input</td><td style="vertical-align:top;">:</td><td><div>&lt;socket._fileobject object at 0x1117c2cd0&gt;</div></td></tr><tr><td style="font-weight:bold;vertical-align:top;">wsgi_multiprocess</td><td style="vertical-align:top;">:</td><td><div>False</div></td></tr><tr><td style="font-weight:bold;vertical-align:top;">wsgi_multithread</td><td style="vertical-align:top;">:</td><td><div>True</div></td></tr><tr><td style="font-weight:bold;vertical-align:top;">wsgi_run_once</td><td style="vertical-align:top;">:</td><td><div>False</div></td></tr><tr><td style="font-weight:bold;vertical-align:top;">wsgi_url_scheme</td><td style="vertical-align:top;">:</td><td><div>http</div></td></tr><tr><td style="font-weight:bold;vertical-align:top;">wsgi_version</td><td style="vertical-align:top;">:</td><td><div><table><tr><td><div>1</div></td></tr><tr><td><div>0</div></td></tr></table></div></td></tr></table></div></td></tr><tr><td style="font-weight:bold;vertical-align:top;">extension</td><td style="vertical-align:top;">:</td><td><div>html</div></td></tr><tr><td style="font-weight:bold;vertical-align:top;">folder</td><td style="vertical-align:top;">:</td><td><div>/Users/marcelwehrle/Virtualenvs/kti/web/applications/KTI/</div></td></tr><tr><td style="font-weight:bold;vertical-align:top;">function</td><td style="vertical-align:top;">:</td><td><div>index</div></td></tr><tr><td style="font-weight:bold;vertical-align:top;">global_settings</td><td style="vertical-align:top;">:</td><td><div><table><tr><td style="font-weight:bold;vertical-align:top;">app_folders</td><td style="vertical-align:top;">:</td><td><div>set([&#x27;/Users/marcelwehrle/Virtualenvs/kti/web/applications/KTI/&#x27;, &#x27;/Users/marcelwehrle/Virtualenvs/kti/web/applications/admin/&#x27;])</div></td></tr><tr><td style="font-weight:bold;vertical-align:top;">applications_parent</td><td style="vertical-align:top;">:</td><td><div>/Users/marcelwehrle/Virtualenvs/kti/web</div></td></tr><tr><td style="font-weight:bold;vertical-align:top;">cmd_args</td><td style="vertical-align:top;">:</td><td><div><table></table></div></td></tr><tr><td style="font-weight:bold;vertical-align:top;">cmd_options</td><td style="vertical-align:top;">:</td><td><div>&lt;Values at 0x10bd6a320: {&#x27;verbose&#x27;: False, &#x27;ip&#x27;: &#x27;127.0.0.1&#x27;, &#x27;debuglevel&#x27;: 30, &#x27;with_scheduler&#x27;: False, &#x27;ips&#x27;: [], &#x27;shutdown_timeout&#x27;: 5, &#x27;taskbar&#x27;: False, &#x27;with_coverage&#x27;: False, &#x27;port&#x27;: 8000, &#x27;maxthreads&#x27;: None, &#x27;softcron&#x27;: False, &#x27;server_name&#x27;: &#x27;Marcels-MacBook-Air.local&#x27;, &#x27;bpython&#x27;: False, &#x27;nogui&#x27;: False, &#x27;pid_filename&#x27;: &#x27;httpserver.pid&#x27;, &#x27;extcron&#x27;: False, &#x27;runcron&#x27;: False, &#x27;run_system_tests&#x27;: False, &#x27;test&#x27;: None, &#x27;folder&#x27;: &#x27;/Users/marcelwehrle/Virtualenvs/kti/web&#x27;, &#x27;config&#x27;: &#x27;&#x27;, &#x27;minthreads&#x27;: None, &#x27;shell&#x27;: None, &#x27;run&#x27;: &#x27;&#x27;, &#x27;log_filename&#x27;: &#x27;httpserver.log&#x27;, &#x27;profiler_dir&#x27;: None, &#x27;args&#x27;: [&#x27;&#x27;], &#x27;socket_timeout&#x27;: 5, &#x27;ssl_ca_certificate&#x27;: None, &#x27;scheduler&#x27;: None, &#x27;interfaces&#x27;: None, &#x27;ssl_private_key&#x27;: &#x27;&#x27;, &#x27;scheduler_groups&#x27;: None, &#x27;password&#x27;: &#x27;&lt;ask&gt;&#x27;, &#x27;request_queue_size&#x27;: 5, &#x27;ssl_certificate&#x27;: &#x27;&#x27;, &#x27;cronjob&#x27;: False, &#x27;numthreads&#x27;: None, &#x27;quiet&#x27;: False, &#x27;import_models&#x27;: False, &#x27;timeout&#x27;: 10, &#x27;plain&#x27;: False, &#x27;nobanner&#x27;: False}&gt;</div></td></tr><tr><td style="font-weight:bold;vertical-align:top;">db_sessions</td><td style="vertical-align:top;">:</td><td><div>set([])</div></td></tr><tr><td style="font-weight:bold;vertical-align:top;">debugging</td><td style="vertical-align:top;">:</td><td><div>False</div></td></tr><tr><td style="font-weight:bold;vertical-align:top;">gluon_parent</td><td style="vertical-align:top;">:</td><td><div>/Users/marcelwehrle/Virtualenvs/kti/web</div></td></tr><tr><td style="font-weight:bold;vertical-align:top;">is_jython</td><td style="vertical-align:top;">:</td><td><div>False</div></td></tr><tr><td style="font-weight:bold;vertical-align:top;">is_pypy</td><td style="vertical-align:top;">:</td><td><div>False</div></td></tr><tr><td style="font-weight:bold;vertical-align:top;">is_source</td><td style="vertical-align:top;">:</td><td><div>True</div></td></tr><tr><td style="font-weight:bold;vertical-align:top;">local_hosts</td><td style="vertical-align:top;">:</td><td><div><table><tr><td><div>::ffff:127.0.0.1</div></td></tr><tr><td><div>::1</div></td></tr><tr><td><div>fe80::1%lo0</div></td></tr><tr><td><div>1.0.0.127.in-addr.arpa</div></td></tr><tr><td><div>127.0.0.1</div></td></tr><tr><td><div>Marcels-MacBook-Air.local</div></td></tr></table></div></td></tr><tr><td style="font-weight:bold;vertical-align:top;">web2py_version</td><td style="vertical-align:top;">:</td><td><div>2.9.5-stable+timestamp.2014.03.22.02.22.24</div></td></tr></table></div></td></tr><tr><td style="font-weight:bold;vertical-align:top;">is_https</td><td style="vertical-align:top;">:</td><td><div>False</div></td></tr><tr><td style="font-weight:bold;vertical-align:top;">is_local</td><td style="vertical-align:top;">:</td><td><div>True</div></td></tr><tr><td style="font-weight:bold;vertical-align:top;">is_restful</td><td style="vertical-align:top;">:</td><td><div>False</div></td></tr><tr><td style="font-weight:bold;vertical-align:top;">now</td><td style="vertical-align:top;">:</td><td><div>datetime.datetime(2014, 4, 12, 15, 42, 54, 111192)</div></td></tr><tr><td style="font-weight:bold;vertical-align:top;">raw_args</td><td style="vertical-align:top;">:</td><td><div></div></td></tr><tr><td style="font-weight:bold;vertical-align:top;">raw_extension</td><td style="vertical-align:top;">:</td><td><div>None</div></td></tr><tr><td style="font-weight:bold;vertical-align:top;">url</td><td style="vertical-align:top;">:</td><td><div>/KTI/default/index</div></td></tr><tr><td style="font-weight:bold;vertical-align:top;">utcnow</td><td style="vertical-align:top;">:</td><td><div>datetime.datetime(2014, 4, 12, 13, 42, 54, 111203)</div></td></tr><tr><td style="font-weight:bold;vertical-align:top;">uuid</td><td style="vertical-align:top;">:</td><td><div>KTI/127.0.0.1.2014-04-12.15-42-54.476efe68-2ee7-4c67-8061-cf920adcbefe</div></td></tr><tr><td style="font-weight:bold;vertical-align:top;">wsgi</td><td style="vertical-align:top;">:</td><td><div>&lt;gluon.main.LazyWSGI object at 0x11558aa50&gt;</div></td></tr></table></div>'
tRp58
sS'frames'
p59
(lp60
(dp61
S'file'
p62
S'/Users/marcelwehrle/Virtualenvs/kti/web/gluon/restricted.py'
p63
sS'dump'
p64
(dp65
S'environment'
p66
S"{'A': <class 'gluon.html.A'>, 'ANY_OF': <class 'gluon.validators.ANY_OF'>, 'Auth': <class 'gluon.tools.Auth'>, 'B': <class 'gluon.html.B'>, 'BEAUTIFY': <class 'gluon.html.BEAUTIFY'>, 'BODY': <class 'gluon.html.BODY'>, 'BR': <class 'gluon.html.BR'>, 'BUTTON': <class 'gluon.html.BUTTON'>, 'CAT': <class 'gluon.html.CAT'>, 'CENTER': <class 'gluon.html.CENTER'>, ...}"
p67
sS'ccode'
p68
S'<code object <module> at 0x10e2d1bb0, file "/Use...plications/KTI/views/default/index.html", line 1>'
p69
ssS'lnum'
p70
I220
sS'lines'
p71
(dp72
I224
S'        # do not encapsulate (obfuscate) the original RestrictedError'
p73
sI215
S'    try:'
p74
sI216
S'        if isinstance(code, types.CodeType):'
p75
sI217
S'            ccode = code'
p76
sI218
S'        else:'
p77
sI219
S'            ccode = compile2(code, layer)'
p78
sI220
S'        exec ccode in environment'
p79
sI221
S'    except HTTP:'
p80
sI222
S'        raise'
p81
sI223
S'    except RestrictedError:'
p82
ssS'call'
p83
S'(code=r"response.write(\'<!--[if HTML5]><![endif]-->\\n<!D...</script>\\n\\t</body>\\n</html>\\n\\n\', escape=False)", environment={\'A\': <class \'gluon.html.A\'>, \'ANY_OF\': <class \'gluon.validators.ANY_OF\'>, \'Auth\': <class \'gluon.tools.Auth\'>, \'B\': <class \'gluon.html.B\'>, \'BEAUTIFY\': <class \'gluon.html.BEAUTIFY\'>, \'BODY\': <class \'gluon.html.BODY\'>, \'BR\': <class \'gluon.html.BR\'>, \'BUTTON\': <class \'gluon.html.BUTTON\'>, \'CAT\': <class \'gluon.html.CAT\'>, \'CENTER\': <class \'gluon.html.CENTER\'>, ...}, layer=\'/Users/marcelwehrle/Virtualenvs/kti/web/applications/KTI/views/default/index.html\')'
p84
sS'func'
p85
S'restricted'
p86
sa(dp87
g62
S'/Users/marcelwehrle/Virtualenvs/kti/web/applications/KTI/views/default/index.html'
p88
sg64
(dp89
sg70
I116
sg71
(dp90
I107
S"right_sidebar_enabled = globals().get('right_sidebar_enabled',False)"
p91
sI108
S"middle_columns = {0:'span12',1:'span9',2:'span6'}["
p92
sI109
S'(left_sidebar_enabled and 1 or 0)+(right_sidebar_enabled and 1 or 0)]'
p93
sI110
S'response.write(\'\\n\\n\\t\\t<!-- uncomment here to load jquery-ui\\n\\t\\t<link rel="stylesheet" href="http://ajax.googleapis.com/ajax/libs/jqueryui/1.10.3/themes/ui-lightness/jquery-ui.css" type="text/css" media="all" />\\n\\t\\t<script src="http://ajax.googleapis.com/ajax/libs/jqueryui/1.10.3/jquery-ui.min.js" type="text/javascript"></script>\\n\\t\\tuncomment to load jquery-ui //-->\\n\\t\\t<noscript>\\n\\t\\t\\t<link href="\', escape=False)'
p94
sI111
S"response.write(URL('static', 'css/web2py_bootstrap_nojs.css'))"
p95
sI112
S'response.write(\'" rel="stylesheet" type="text/css" />\\n\\t\\t</noscript>\\n\\t\\t\', escape=False)'
p96
sI113
S'response.write(\'\\n\\t</head>\\n\\t<body class="scripts-async">\\n\\t\\t<!-- Main Container Fluid -->\\n\\t\\t<div class="container-fluid menu-hidden">\\n\\t\\t\\t<!-- Sidebar Menu -->\\n\\t\\t\\t<div id="menu" class="hidden-print hidden-xs ">\\n\\t\\t\\t\\t<div id="sidebar-discover-wrapper">\\n\\t\\t\\t\\t\\t<ul class="list-unstyled">\\n\\t\\t\\t\\t\\t\\t<li class="active">\\n\\t\\t\\t\\t\\t\\t\\t<a href="#sidebar-discover-social" class="glyphicons home " data-toggle="sidebar-discover"> <span class="badge pull-right badge-primary hidden-md">7</span><i></i> <span>Overview</span> </a>\\n\\t\\t\\t\\t\\t\\t\\t<div id="sidebar-discover-social" class="sidebar-discover-menu">\\n\\t\\t\\t\\t\\t\\t\\t\\t<div class="innerAll text-center border-bottom text-muted-dark">\\n\\t\\t\\t\\t\\t\\t\\t\\t\\t<strong>Overview</strong>\\n\\t\\t\\t\\t\\t\\t\\t\\t\\t<button class="btn btn-xs btn-default close-discover">\\n\\t\\t\\t\\t\\t\\t\\t\\t\\t\\t<i class="fa fa-fw fa-times"></i>\\n\\t\\t\\t\\t\\t\\t\\t\\t\\t</button>\\n\\t\\t\\t\\t\\t\\t\\t\\t</div>\\n\\t\\t\\t\\t\\t\\t\\t\\t<ul class="animated fadeIn">\\n\\t\\t\\t\\t\\t\\t\\t\\t\\t<li class="active">\\n\\t\\t\\t\\t\\t\\t\\t\\t\\t\\t<a href="index.html?lang=en">Analytics</a>\\n\\t\\t\\t\\t\\t\\t\\t\\t\\t</li>\\n\\t\\t\\t\\t\\t\\t\\t\\t\\t<li>\\n\\t\\t\\t\\t\\t\\t\\t\\t\\t\\t<a href="dashboard_users.html?lang=en">Users</a>\\n\\t\\t\\t\\t\\t\\t\\t\\t\\t</li>\\n\\t\\t\\t\\t\\t\\t\\t\\t\\t<li>\\n\\t\\t\\t\\t\\t\\t\\t\\t\\t\\t<a href="medical_overview.html?lang=en">Medical</a>\\n\\t\\t\\t\\t\\t\\t\\t\\t\\t</li>\\n\\t\\t\\t\\t\\t\\t\\t\\t\\t<li>\\n\\t\\t\\t\\t\\t\\t\\t\\t\\t\\t<a href="finances.html?lang=en">Financial</a>\\n\\t\\t\\t\\t\\t\\t\\t\\t\\t</li>\\n\\t\\t\\t\\t\\t\\t\\t\\t\\t<li>\\n\\t\\t\\t\\t\\t\\t\\t\\t\\t\\t<a href="courses_2.html?lang=en">Learning</a>\\n\\t\\t\\t\\t\\t\\t\\t\\t\\t</li>\\n\\t\\t\\t\\t\\t\\t\\t\\t</ul>\\n\\t\\t\\t\\t\\t\\t\\t</div>\\n\\t\\t\\t\\t\\t\\t</li>\\n\\t\\t\\t\\t\\t\\t<li>\\n\\t\\t\\t\\t\\t\\t\\t<a href="#sidebar-discover-media" class="glyphicons picture" data-toggle="sidebar-discover"> <span class="badge pull-right badge-primary hidden-md">2</span><i></i> <span>Media</span> </a>\\n\\t\\t\\t\\t\\t\\t\\t<div id="sidebar-discover-media" class="sidebar-discover-menu">\\n\\t\\t\\t\\t\\t\\t\\t\\t<div class="innerAll text-center border-bottom text-muted-dark">\\n\\t\\t\\t\\t\\t\\t\\t\\t\\t<strong>Media</strong>\\n\\t\\t\\t\\t\\t\\t\\t\\t\\t<button class="btn btn-xs btn-default close-discover">\\n\\t\\t\\t\\t\\t\\t\\t\\t\\t\\t<i class="fa fa-fw fa-times"></i>\\n\\t\\t\\t\\t\\t\\t\\t\\t\\t</button>\\n\\t\\t\\t\\t\\t\\t\\t\\t</div>\\n\\t\\t\\t\\t\\t\\t\\t\\t<ul class="animated fadeIn">\\n\\t\\t\\t\\t\\t\\t\\t\\t\\t<li>\\n\\t\\t\\t\\t\\t\\t\\t\\t\\t\\t<a href="gallery_video.html?lang=en"><i class="fa fa-video-camera"></i> Video Gallery</a>\\n\\t\\t\\t\\t\\t\\t\\t\\t\\t</li>\\n\\t\\t\\t\\t\\t\\t\\t\\t\\t<li>\\n\\t\\t\\t\\t\\t\\t\\t\\t\\t\\t<a href="gallery.html?lang=en"><i class="fa fa-camera"></i> Photo Gallery</a>\\n\\t\\t\\t\\t\\t\\t\\t\\t\\t</li>\\n\\t\\t\\t\\t\\t\\t\\t\\t</ul>\\n\\t\\t\\t\\t\\t\\t\\t</div>\\n\\t\\t\\t\\t\\t\\t</li>\\n\\t\\t\\t\\t\\t\\t<li>\\n\\t\\t\\t\\t\\t\\t\\t<a href="#sidebar-discover-email" class="glyphicons envelope" data-toggle="sidebar-discover"><i></i><span>Email</span></a>\\n\\t\\t\\t\\t\\t\\t\\t<div id="sidebar-discover-email" class="sidebar-discover-menu">\\n\\t\\t\\t\\t\\t\\t\\t\\t<div class="innerAll text-center border-bottom text-muted-dark">\\n\\t\\t\\t\\t\\t\\t\\t\\t\\t<strong>Email</strong>\\n\\t\\t\\t\\t\\t\\t\\t\\t\\t<button class="btn btn-xs btn-default close-discover">\\n\\t\\t\\t\\t\\t\\t\\t\\t\\t\\t<i class="fa fa-fw fa-times"></i>\\n\\t\\t\\t\\t\\t\\t\\t\\t\\t</button>\\n\\t\\t\\t\\t\\t\\t\\t\\t</div>\\n\\t\\t\\t\\t\\t\\t\\t\\t<ul class="animated fadeIn">\\n\\t\\t\\t\\t\\t\\t\\t\\t\\t<li>\\n\\t\\t\\t\\t\\t\\t\\t\\t\\t\\t<a href="email.html?lang=en"><i class="fa fa-envelope"></i> Inbox</a>\\n\\t\\t\\t\\t\\t\\t\\t\\t\\t</li>\\n\\t\\t\\t\\t\\t\\t\\t\\t\\t<li>\\n\\t\\t\\t\\t\\t\\t\\t\\t\\t\\t<a href="email_compose.html?lang=en"><i class="fa fa-pencil"></i> Compose</a>\\n\\t\\t\\t\\t\\t\\t\\t\\t\\t</li>\\n\\t\\t\\t\\t\\t\\t\\t\\t</ul>\\n\\t\\t\\t\\t\\t\\t\\t</div>\\n\\t\\t\\t\\t\\t\\t</li>\\n\\t\\t\\t\\t\\t\\t<li>\\n\\t\\t\\t\\t\\t\\t\\t<a href="#sidebar-discover-courses" class="glyphicons crown" data-toggle="sidebar-discover"><i></i><span>Learning</span></a>\\n\\t\\t\\t\\t\\t\\t\\t<div id="sidebar-discover-courses" class="sidebar-discover-menu">\\n\\t\\t\\t\\t\\t\\t\\t\\t<div class="innerAll text-center border-bottom text-muted-dark">\\n\\t\\t\\t\\t\\t\\t\\t\\t\\t<strong>Learning</strong>\\n\\t\\t\\t\\t\\t\\t\\t\\t\\t<button class="btn btn-xs btn-default close-discover">\\n\\t\\t\\t\\t\\t\\t\\t\\t\\t\\t<i class="fa fa-fw fa-times"></i>\\n\\t\\t\\t\\t\\t\\t\\t\\t\\t</button>\\n\\t\\t\\t\\t\\t\\t\\t\\t</div>\\n\\t\\t\\t\\t\\t\\t\\t\\t<ul class="animated fadeIn">\\n\\t\\t\\t\\t\\t\\t\\t\\t\\t<li>\\n\\t\\t\\t\\t\\t\\t\\t\\t\\t\\t<a href="courses_2.html?lang=en"><i class="fa fa-circle-o"></i> Courses Home</a>\\n\\t\\t\\t\\t\\t\\t\\t\\t\\t</li>\\n\\t\\t\\t\\t\\t\\t\\t\\t\\t<li>\\n\\t\\t\\t\\t\\t\\t\\t\\t\\t\\t<a href="courses_listing.html?lang=en"><i class="fa fa-circle-o"></i> Courses Listing</a>\\n\\t\\t\\t\\t\\t\\t\\t\\t\\t</li>\\n\\t\\t\\t\\t\\t\\t\\t\\t\\t<li>\\n\\t\\t\\t\\t\\t\\t\\t\\t\\t\\t<a href="course.html?lang=en"><i class="fa fa-circle-o"></i> Course Page</a>\\n\\t\\t\\t\\t\\t\\t\\t\\t\\t</li>\\n\\t\\t\\t\\t\\t\\t\\t\\t</ul>\\n\\t\\t\\t\\t\\t\\t\\t</div>\\n\\t\\t\\t\\t\\t\\t</li>\\n\\t\\t\\t\\t\\t\\t<li>\\n\\t\\t\\t\\t\\t\\t\\t<a href="#sidebar-discover-support" data-toggle="sidebar-discover" class="glyphicons life_preserver"><i></i><span>Support</span></a>\\n\\t\\t\\t\\t\\t\\t\\t<div id="sidebar-discover-support" class="sidebar-discover-menu">\\n\\t\\t\\t\\t\\t\\t\\t\\t<div class="innerAll text-center border-bottom text-muted-dark">\\n\\t\\t\\t\\t\\t\\t\\t\\t\\t<strong>Support</strong>\\n\\t\\t\\t\\t\\t\\t\\t\\t\\t<button class="btn btn-xs btn-default close-discover">\\n\\t\\t\\t\\t\\t\\t\\t\\t\\t\\t<i class="fa fa-fw fa-times"></i>\\n\\t\\t\\t\\t\\t\\t\\t\\t\\t</button>\\n\\t\\t\\t\\t\\t\\t\\t\\t</div>\\n\\t\\t\\t\\t\\t\\t\\t\\t<ul class="animated fadeIn">\\n\\t\\t\\t\\t\\t\\t\\t\\t\\t<li>\\n\\t\\t\\t\\t\\t\\t\\t\\t\\t\\t<a href="support_tickets.html?lang=en"> <span class="badge pull-right badge-inverse">45</span><i class="fa fa-ticket"></i> <span>Tickets</span> </a>\\n\\t\\t\\t\\t\\t\\t\\t\\t\\t</li>\\n\\t\\t\\t\\t\\t\\t\\t\\t\\t<li>\\n\\t\\t\\t\\t\\t\\t\\t\\t\\t\\t<a href="support_forum_overview.html?lang=en"><i class="fa fa-folder-o"></i> <span>Overview page</span> </a>\\n\\t\\t\\t\\t\\t\\t\\t\\t\\t</li>\\n\\t\\t\\t\\t\\t\\t\\t\\t\\t<li>\\n\\t\\t\\t\\t\\t\\t\\t\\t\\t\\t<a href="support_forum_post.html?lang=en"><i class="fa fa-folder-o"></i><span>Post page</span></a>\\n\\t\\t\\t\\t\\t\\t\\t\\t\\t</li>\\n\\t\\t\\t\\t\\t\\t\\t\\t\\t<li>\\n\\t\\t\\t\\t\\t\\t\\t\\t\\t\\t<a href="support_kb.html?lang=en"><i class="fa fa-file-text-o"></i><span>Knowledge Base</span></a>\\n\\t\\t\\t\\t\\t\\t\\t\\t\\t</li>\\n\\t\\t\\t\\t\\t\\t\\t\\t\\t<li>\\n\\t\\t\\t\\t\\t\\t\\t\\t\\t\\t<a href="support_questions.html?lang=en"> <span class="badge pull-right badge-inverse">7</span><i class="fa fa-question"></i> <span>Questions</span> </a>\\n\\t\\t\\t\\t\\t\\t\\t\\t\\t</li>\\n\\t\\t\\t\\t\\t\\t\\t\\t\\t<li>\\n\\t\\t\\t\\t\\t\\t\\t\\t\\t\\t<a href="support_answers.html?lang=en"><i class="fa fa-info"></i><span>Answers</span></a>\\n\\t\\t\\t\\t\\t\\t\\t\\t\\t</li>\\n\\t\\t\\t\\t\\t\\t\\t\\t</ul>\\n\\t\\t\\t\\t\\t\\t\\t</div>\\n\\t\\t\\t\\t\\t\\t</li>\\n\\t\\t\\t\\t\\t\\t<li>\\n\\t\\t\\t\\t\\t\\t\\t<a href="#sidebar-discover-medical" data-toggle="sidebar-discover" class="glyphicons circle_plus"><i></i><span>Medical</span></a>\\n\\t\\t\\t\\t\\t\\t\\t<div id="sidebar-discover-medical" class="sidebar-discover-menu">\\n\\t\\t\\t\\t\\t\\t\\t\\t<div class="innerAll text-center border-bottom text-muted-dark">\\n\\t\\t\\t\\t\\t\\t\\t\\t\\t<strong>Medical App</strong>\\n\\t\\t\\t\\t\\t\\t\\t\\t\\t<button class="btn btn-xs btn-default close-discover">\\n\\t\\t\\t\\t\\t\\t\\t\\t\\t\\t<i class="fa fa-fw fa-times"></i>\\n\\t\\t\\t\\t\\t\\t\\t\\t\\t</button>\\n\\t\\t\\t\\t\\t\\t\\t\\t</div>\\n\\t\\t\\t\\t\\t\\t\\t\\t<ul class="animated fadeIn">\\n\\t\\t\\t\\t\\t\\t\\t\\t\\t<li class="">\\n\\t\\t\\t\\t\\t\\t\\t\\t\\t\\t<a href="medical_overview.html?lang=en"><i class="fa fa-medkit"></i> Overview</a>\\n\\t\\t\\t\\t\\t\\t\\t\\t\\t</li>\\n\\t\\t\\t\\t\\t\\t\\t\\t\\t<li class="">\\n\\t\\t\\t\\t\\t\\t\\t\\t\\t\\t<a href="medical_patients.html?lang=en"> <span class="badge pull-right badge-primary hidden-md">2</span><i class="fa fa-user-md"></i> Patients</a>\\n\\t\\t\\t\\t\\t\\t\\t\\t\\t</li>\\n\\t\\t\\t\\t\\t\\t\\t\\t\\t<li class="">\\n\\t\\t\\t\\t\\t\\t\\t\\t\\t\\t<a href="medical_appointments.html?lang=en"><i class="fa fa-stethoscope"></i> Appointments</a>\\n\\t\\t\\t\\t\\t\\t\\t\\t\\t</li>\\n\\t\\t\\t\\t\\t\\t\\t\\t\\t<li class="">\\n\\t\\t\\t\\t\\t\\t\\t\\t\\t\\t<a href="medical_memos.html?lang=en"><i class="fa fa-file-text-o"></i> Memos</a>\\n\\t\\t\\t\\t\\t\\t\\t\\t\\t</li>\\n\\t\\t\\t\\t\\t\\t\\t\\t\\t<li class="border-bottom-none">\\n\\t\\t\\t\\t\\t\\t\\t\\t\\t\\t<a href="medical_metrics.html?lang=en"><i class="fa fa-bar-chart-o"></i> Metrics</a>\\n\\t\\t\\t\\t\\t\\t\\t\\t\\t</li>\\n\\t\\t\\t\\t\\t\\t\\t\\t</ul>\\n\\t\\t\\t\\t\\t\\t\\t</div>\\n\\t\\t\\t\\t\\t\\t</li>\\n\\t\\t\\t\\t\\t\\t<li>\\n\\t\\t\\t\\t\\t\\t\\t<a href="#sidebar-discover-maps" class="glyphicons google_maps" data-toggle="sidebar-discover"><i></i><span>Maps</span></a>\\n\\t\\t\\t\\t\\t\\t\\t<div id="sidebar-discover-maps" class="sidebar-discover-menu">\\n\\t\\t\\t\\t\\t\\t\\t\\t<div class="innerAll text-center border-bottom text-muted-dark">\\n\\t\\t\\t\\t\\t\\t\\t\\t\\t<strong>Maps</strong>\\n\\t\\t\\t\\t\\t\\t\\t\\t\\t<button class="btn btn-xs btn-default close-discover">\\n\\t\\t\\t\\t\\t\\t\\t\\t\\t\\t<i class="fa fa-fw fa-times"></i>\\n\\t\\t\\t\\t\\t\\t\\t\\t\\t</button>\\n\\t\\t\\t\\t\\t\\t\\t\\t</div>\\n\\t\\t\\t\\t\\t\\t\\t\\t<ul class="animated fadeIn">\\n\\t\\t\\t\\t\\t\\t\\t\\t\\t<li>\\n\\t\\t\\t\\t\\t\\t\\t\\t\\t\\t<a href="maps_google.html?lang=en"><i class="fa fa-map-marker"></i> Google Maps</a>\\n\\t\\t\\t\\t\\t\\t\\t\\t\\t</li>\\n\\t\\t\\t\\t\\t\\t\\t\\t\\t<li>\\n\\t\\t\\t\\t\\t\\t\\t\\t\\t\\t<a href="maps_vector.html?lang=en"><i class="fa fa-map-marker"></i> Vector Maps</a>\\n\\t\\t\\t\\t\\t\\t\\t\\t\\t</li>\\n\\t\\t\\t\\t\\t\\t\\t\\t</ul>\\n\\t\\t\\t\\t\\t\\t\\t</div>\\n\\t\\t\\t\\t\\t\\t</li>\\n\\t\\t\\t\\t\\t\\t<li>\\n\\t\\t\\t\\t\\t\\t\\t<a href="#sidebar-discover-content" data-toggle="sidebar-discover" class="glyphicons notes_2"><i></i><span>Content</span></a>\\n\\t\\t\\t\\t\\t\\t\\t<div id="sidebar-discover-content" class="sidebar-discover-menu">\\n\\t\\t\\t\\t\\t\\t\\t\\t<div class="innerAll text-center border-bottom text-muted-dark">\\n\\t\\t\\t\\t\\t\\t\\t\\t\\t<strong>Content</strong>\\n\\t\\t\\t\\t\\t\\t\\t\\t\\t<button class="btn btn-xs btn-default close-discover">\\n\\t\\t\\t\\t\\t\\t\\t\\t\\t\\t<i class="fa fa-fw fa-times"></i>\\n\\t\\t\\t\\t\\t\\t\\t\\t\\t</button>\\n\\t\\t\\t\\t\\t\\t\\t\\t</div>\\n\\t\\t\\t\\t\\t\\t\\t\\t<ul class="animated fadeIn">\\n\\t\\t\\t\\t\\t\\t\\t\\t\\t<li>\\n\\t\\t\\t\\t\\t\\t\\t\\t\\t\\t<a href="news.html?lang=en"><i class="fa fa-file-text-o"></i> News</a>\\n\\t\\t\\t\\t\\t\\t\\t\\t\\t</li>\\n\\t\\t\\t\\t\\t\\t\\t\\t\\t<li>\\n\\t\\t\\t\\t\\t\\t\\t\\t\\t\\t<a href="faq.html?lang=en"><i class="fa fa-question-circle"></i> FAQ</a>\\n\\t\\t\\t\\t\\t\\t\\t\\t\\t</li>\\n\\t\\t\\t\\t\\t\\t\\t\\t\\t<li>\\n\\t\\t\\t\\t\\t\\t\\t\\t\\t\\t<a href="search.html?lang=en"><i class="fa fa-search"></i> Search</a>\\n\\t\\t\\t\\t\\t\\t\\t\\t\\t</li>\\n\\t\\t\\t\\t\\t\\t\\t\\t</ul>\\n\\t\\t\\t\\t\\t\\t\\t</div>\\n\\t\\t\\t\\t\\t\\t</li>\\n\\t\\t\\t\\t\\t\\t<li>\\n\\t\\t\\t\\t\\t\\t\\t<a href="#sidebar-discover-financial" data-toggle="sidebar-discover" class="glyphicons calculator"><i></i><span>Financial</span></a>\\n\\t\\t\\t\\t\\t\\t\\t<div id="sidebar-discover-financial" class="sidebar-discover-menu">\\n\\t\\t\\t\\t\\t\\t\\t\\t<div class="innerAll text-center border-bottom text-muted-dark">\\n\\t\\t\\t\\t\\t\\t\\t\\t\\t<strong>Financial</strong>\\n\\t\\t\\t\\t\\t\\t\\t\\t\\t<button class="btn btn-xs btn-default close-discover">\\n\\t\\t\\t\\t\\t\\t\\t\\t\\t\\t<i class="fa fa-fw fa-times"></i>\\n\\t\\t\\t\\t\\t\\t\\t\\t\\t</button>\\n\\t\\t\\t\\t\\t\\t\\t\\t</div>\\n\\t\\t\\t\\t\\t\\t\\t\\t<ul class="animated fadeIn">\\n\\t\\t\\t\\t\\t\\t\\t\\t\\t<li>\\n\\t\\t\\t\\t\\t\\t\\t\\t\\t\\t<a href="invoice.html?lang=en"><i class="fa fa-file-text-o"></i> Invoice</a>\\n\\t\\t\\t\\t\\t\\t\\t\\t\\t</li>\\n\\t\\t\\t\\t\\t\\t\\t\\t\\t<li>\\n\\t\\t\\t\\t\\t\\t\\t\\t\\t\\t<a href="finances.html?lang=en"><i class="fa fa-legal"></i> Finances</a>\\n\\t\\t\\t\\t\\t\\t\\t\\t\\t</li>\\n\\t\\t\\t\\t\\t\\t\\t\\t\\t<li>\\n\\t\\t\\t\\t\\t\\t\\t\\t\\t\\t<a href="bookings.html?lang=en"><i class="fa fa-ticket"></i> Bookings</a>\\n\\t\\t\\t\\t\\t\\t\\t\\t\\t</li>\\n\\t\\t\\t\\t\\t\\t\\t\\t</ul>\\n\\t\\t\\t\\t\\t\\t\\t</div>\\n\\t\\t\\t\\t\\t\\t</li>\\n\\t\\t\\t\\t\\t\\t<li>\\n\\t\\t\\t\\t\\t\\t\\t<a href="#sidebar-discover-shop" data-toggle="sidebar-discover" class="glyphicons shopping_cart"><i></i><span>eCommerce</span></a>\\n\\t\\t\\t\\t\\t\\t\\t<div id="sidebar-discover-shop" class="sidebar-discover-menu">\\n\\t\\t\\t\\t\\t\\t\\t\\t<div class="innerAll text-center border-bottom text-muted-dark">\\n\\t\\t\\t\\t\\t\\t\\t\\t\\t<strong>eCommerce</strong>\\n\\t\\t\\t\\t\\t\\t\\t\\t\\t<button class="btn btn-xs btn-default close-discover">\\n\\t\\t\\t\\t\\t\\t\\t\\t\\t\\t<i class="fa fa-fw fa-times"></i>\\n\\t\\t\\t\\t\\t\\t\\t\\t\\t</button>\\n\\t\\t\\t\\t\\t\\t\\t\\t</div>\\n\\t\\t\\t\\t\\t\\t\\t\\t<ul class="animated fadeIn">\\n\\t\\t\\t\\t\\t\\t\\t\\t\\t<li>\\n\\t\\t\\t\\t\\t\\t\\t\\t\\t\\t<a href="shop_products.html?lang=en"><i class="fa fa-list"></i><span>Products</span></a>\\n\\t\\t\\t\\t\\t\\t\\t\\t\\t</li>\\n\\t\\t\\t\\t\\t\\t\\t\\t\\t<li>\\n\\t\\t\\t\\t\\t\\t\\t\\t\\t\\t<a href="shop_edit_product.html?lang=en"><i class="fa fa-edit"></i><span>Edit product</span></a>\\n\\t\\t\\t\\t\\t\\t\\t\\t\\t</li>\\n\\t\\t\\t\\t\\t\\t\\t\\t</ul>\\n\\t\\t\\t\\t\\t\\t\\t</div>\\n\\t\\t\\t\\t\\t\\t</li>\\n\\t\\t\\t\\t\\t\\t<li>\\n\\t\\t\\t\\t\\t\\t\\t<a href="#sidebar-discover-manage" class="glyphicons wrench" data-toggle="sidebar-discover"><i></i><span>Manage</span></a>\\n\\t\\t\\t\\t\\t\\t\\t<div id="sidebar-discover-manage" class="sidebar-discover-menu">\\n\\t\\t\\t\\t\\t\\t\\t\\t<div class="innerAll text-center border-bottom text-muted-dark">\\n\\t\\t\\t\\t\\t\\t\\t\\t\\t<strong>Management</strong>\\n\\t\\t\\t\\t\\t\\t\\t\\t\\t<button class="btn btn-xs btn-default close-discover">\\n\\t\\t\\t\\t\\t\\t\\t\\t\\t\\t<i class="fa fa-fw fa-times"></i>\\n\\t\\t\\t\\t\\t\\t\\t\\t\\t</button>\\n\\t\\t\\t\\t\\t\\t\\t\\t</div>\\n\\t\\t\\t\\t\\t\\t\\t\\t<ul class="animated fadeIn">\\n\\t\\t\\t\\t\\t\\t\\t\\t\\t<li>\\n\\t\\t\\t\\t\\t\\t\\t\\t\\t\\t<a href="employees.html?lang=en"><i class="fa fa-user"></i> Employees</a>\\n\\t\\t\\t\\t\\t\\t\\t\\t\\t</li>\\n\\t\\t\\t\\t\\t\\t\\t\\t</ul>\\n\\t\\t\\t\\t\\t\\t\\t</div>\\n\\t\\t\\t\\t\\t\\t</li>\\n\\t\\t\\t\\t\\t\\t<li>\\n\\t\\t\\t\\t\\t\\t\\t<a href="surveys_multiple.html?lang=en" class="glyphicons turtle"><i></i><span>Surveys</span></a>\\n\\t\\t\\t\\t\\t\\t</li>\\n\\t\\t\\t\\t\\t\\t<li>\\n\\t\\t\\t\\t\\t\\t\\t<a href="events.html?lang=en" class="glyphicons google_maps"><i></i><span>Events</span></a>\\n\\t\\t\\t\\t\\t\\t</li>\\n\\t\\t\\t\\t\\t\\t<li>\\n\\t\\t\\t\\t\\t\\t\\t<a href="#sidebar-discover-elements" data-toggle="sidebar-discover" class="glyphicons adjust_alt"><i></i><span>Elements</span></a>\\n\\t\\t\\t\\t\\t\\t\\t<div id="sidebar-discover-elements" class="sidebar-discover-menu">\\n\\t\\t\\t\\t\\t\\t\\t\\t<div class="innerAll text-center border-bottom text-muted-dark">\\n\\t\\t\\t\\t\\t\\t\\t\\t\\t<strong>Components</strong>\\n\\t\\t\\t\\t\\t\\t\\t\\t\\t<button class="btn btn-xs btn-default close-discover">\\n\\t\\t\\t\\t\\t\\t\\t\\t\\t\\t<i class="fa fa-fw fa-times"></i>\\n\\t\\t\\t\\t\\t\\t\\t\\t\\t</button>\\n\\t\\t\\t\\t\\t\\t\\t\\t</div>\\n\\t\\t\\t\\t\\t\\t\\t\\t<ul class="animated fadeIn">\\n\\t\\t\\t\\t\\t\\t\\t\\t\\t<li class="">\\n\\t\\t\\t\\t\\t\\t\\t\\t\\t\\t<a href="ui.html?lang=en"><i class="fa fa-circle-o"></i><span>UI Elements</span></a>\\n\\t\\t\\t\\t\\t\\t\\t\\t\\t</li>\\n\\t\\t\\t\\t\\t\\t\\t\\t\\t<li class="">\\n\\t\\t\\t\\t\\t\\t\\t\\t\\t\\t<a href="icons.html?lang=en"><i class="fa fa-circle-o"></i><span>Icons</span></a>\\n\\t\\t\\t\\t\\t\\t\\t\\t\\t</li>\\n\\t\\t\\t\\t\\t\\t\\t\\t\\t<li class="">\\n\\t\\t\\t\\t\\t\\t\\t\\t\\t\\t<a href="typography.html?lang=en"><i class="fa fa-circle-o"></i><span>Typography</span></a>\\n\\t\\t\\t\\t\\t\\t\\t\\t\\t</li>\\n\\t\\t\\t\\t\\t\\t\\t\\t\\t<li class="">\\n\\t\\t\\t\\t\\t\\t\\t\\t\\t\\t<a href="calendar.html?lang=en"><i class="fa fa-circle-o"></i><span>Calendar</span></a>\\n\\t\\t\\t\\t\\t\\t\\t\\t\\t</li>\\n\\t\\t\\t\\t\\t\\t\\t\\t\\t<li class="">\\n\\t\\t\\t\\t\\t\\t\\t\\t\\t\\t<a href="tabs.html?lang=en"><i class="fa fa-circle-o"></i><span>Tabs</span></a>\\n\\t\\t\\t\\t\\t\\t\\t\\t\\t</li>\\n\\t\\t\\t\\t\\t\\t\\t\\t\\t<li class="hasSubmenu">\\n\\t\\t\\t\\t\\t\\t\\t\\t\\t\\t<a href="#menu_tables" data-toggle="collapse"> <span class="badge badge-primary pull-right">3</span><i class="fa fa-circle-o"></i> <span>Tables</span> </a>\\n\\t\\t\\t\\t\\t\\t\\t\\t\\t\\t<ul class="collapse animated fadeIn" id="menu_tables">\\n\\t\\t\\t\\t\\t\\t\\t\\t\\t\\t\\t<li class="">\\n\\t\\t\\t\\t\\t\\t\\t\\t\\t\\t\\t\\t<a href="tables.html?lang=en">Tables</a>\\n\\t\\t\\t\\t\\t\\t\\t\\t\\t\\t\\t</li>\\n\\t\\t\\t\\t\\t\\t\\t\\t\\t\\t\\t<li class="">\\n\\t\\t\\t\\t\\t\\t\\t\\t\\t\\t\\t\\t<a href="tables_responsive.html?lang=en">Responsive</a>\\n\\t\\t\\t\\t\\t\\t\\t\\t\\t\\t\\t</li>\\n\\t\\t\\t\\t\\t\\t\\t\\t\\t\\t\\t<li class="">\\n\\t\\t\\t\\t\\t\\t\\t\\t\\t\\t\\t\\t<a href="pricing_tables.html?lang=en">Pricing Tables</a>\\n\\t\\t\\t\\t\\t\\t\\t\\t\\t\\t\\t</li>\\n\\t\\t\\t\\t\\t\\t\\t\\t\\t\\t</ul>\\n\\t\\t\\t\\t\\t\\t\\t\\t\\t</li>\\n\\t\\t\\t\\t\\t\\t\\t\\t\\t<li class="hasSubmenu">\\n\\t\\t\\t\\t\\t\\t\\t\\t\\t\\t<a href="#menu_forms" data-toggle="collapse"> <span class="badge badge-primary pull-right">4</span><i class="fa fa-circle-o"></i> <span>Forms</span> </a>\\n\\t\\t\\t\\t\\t\\t\\t\\t\\t\\t<ul class="collapse" id="menu_forms">\\n\\t\\t\\t\\t\\t\\t\\t\\t\\t\\t\\t<li class="">\\n\\t\\t\\t\\t\\t\\t\\t\\t\\t\\t\\t\\t<a href="form_wizards.html?lang=en">Form Wizards</a>\\n\\t\\t\\t\\t\\t\\t\\t\\t\\t\\t\\t</li>\\n\\t\\t\\t\\t\\t\\t\\t\\t\\t\\t\\t<li class="">\\n\\t\\t\\t\\t\\t\\t\\t\\t\\t\\t\\t\\t<a href="form_elements.html?lang=en">Form Elements</a>\\n\\t\\t\\t\\t\\t\\t\\t\\t\\t\\t\\t</li>\\n\\t\\t\\t\\t\\t\\t\\t\\t\\t\\t\\t<li class="">\\n\\t\\t\\t\\t\\t\\t\\t\\t\\t\\t\\t\\t<a href="form_validator.html?lang=en">Form Validator</a>\\n\\t\\t\\t\\t\\t\\t\\t\\t\\t\\t\\t</li>\\n\\t\\t\\t\\t\\t\\t\\t\\t\\t\\t\\t<li class="">\\n\\t\\t\\t\\t\\t\\t\\t\\t\\t\\t\\t\\t<a href="file_managers.html?lang=en">File Managers</a>\\n\\t\\t\\t\\t\\t\\t\\t\\t\\t\\t\\t</li>\\n\\t\\t\\t\\t\\t\\t\\t\\t\\t\\t</ul>\\n\\t\\t\\t\\t\\t\\t\\t\\t\\t</li>\\n\\t\\t\\t\\t\\t\\t\\t\\t\\t<li class="">\\n\\t\\t\\t\\t\\t\\t\\t\\t\\t\\t<a href="sliders.html?lang=en"><i class="fa fa-circle-o"></i><span>Sliders</span></a>\\n\\t\\t\\t\\t\\t\\t\\t\\t\\t</li>\\n\\t\\t\\t\\t\\t\\t\\t\\t\\t<li class="">\\n\\t\\t\\t\\t\\t\\t\\t\\t\\t\\t<a href="charts.html?lang=en"><i class="fa fa-circle-o"></i><span>Charts</span></a>\\n\\t\\t\\t\\t\\t\\t\\t\\t\\t</li>\\n\\t\\t\\t\\t\\t\\t\\t\\t\\t<li class="">\\n\\t\\t\\t\\t\\t\\t\\t\\t\\t\\t<a href="grid.html?lang=en"><i class="fa fa-circle-o"></i><span>Grid</span></a>\\n\\t\\t\\t\\t\\t\\t\\t\\t\\t</li>\\n\\t\\t\\t\\t\\t\\t\\t\\t\\t<li class="">\\n\\t\\t\\t\\t\\t\\t\\t\\t\\t\\t<a href="notifications.html?lang=en"><i class="fa fa-circle-o"></i><span>Notifications</span></a>\\n\\t\\t\\t\\t\\t\\t\\t\\t\\t</li>\\n\\t\\t\\t\\t\\t\\t\\t\\t\\t<li class="">\\n\\t\\t\\t\\t\\t\\t\\t\\t\\t\\t<a href="modals.html?lang=en"><i class="fa fa-circle-o"></i><span>Modals</span></a>\\n\\t\\t\\t\\t\\t\\t\\t\\t\\t</li>\\n\\t\\t\\t\\t\\t\\t\\t\\t\\t<li class="">\\n\\t\\t\\t\\t\\t\\t\\t\\t\\t\\t<a href="thumbnails.html?lang=en"><i class="fa fa-circle-o"></i><span>Thumbnails</span></a>\\n\\t\\t\\t\\t\\t\\t\\t\\t\\t</li>\\n\\t\\t\\t\\t\\t\\t\\t\\t\\t<li class="">\\n\\t\\t\\t\\t\\t\\t\\t\\t\\t\\t<a href="carousels.html?lang=en"><i class="fa fa-circle-o"></i><span>Carousels</span></a>\\n\\t\\t\\t\\t\\t\\t\\t\\t\\t</li>\\n\\t\\t\\t\\t\\t\\t\\t\\t\\t<li class="">\\n\\t\\t\\t\\t\\t\\t\\t\\t\\t\\t<a href="image_crop.html?lang=en"><i class="fa fa-circle-o"></i><span>Image Crop</span></a>\\n\\t\\t\\t\\t\\t\\t\\t\\t\\t</li>\\n\\t\\t\\t\\t\\t\\t\\t\\t\\t<li class="">\\n\\t\\t\\t\\t\\t\\t\\t\\t\\t\\t<a href="twitter.html?lang=en"><i class="fa fa-circle-o"></i><span>Twitter API</span></a>\\n\\t\\t\\t\\t\\t\\t\\t\\t\\t</li>\\n\\t\\t\\t\\t\\t\\t\\t\\t\\t<li class="">\\n\\t\\t\\t\\t\\t\\t\\t\\t\\t\\t<a href="infinite_scroll.html?lang=en"><i class="fa fa-circle-o"></i><span>Infinite Scroll</span></a>\\n\\t\\t\\t\\t\\t\\t\\t\\t\\t</li>\\n\\t\\t\\t\\t\\t\\t\\t\\t</ul>\\n\\t\\t\\t\\t\\t\\t\\t</div>\\n\\t\\t\\t\\t\\t\\t</li>\\n\\t\\t\\t\\t\\t\\t<li>\\n\\t\\t\\t\\t\\t\\t\\t<a href="#sidebar-discover-account" data-toggle="sidebar-discover" class="glyphicons user"><i></i><span>Account</span></a>\\n\\t\\t\\t\\t\\t\\t\\t<div id="sidebar-discover-account" class="sidebar-discover-menu">\\n\\t\\t\\t\\t\\t\\t\\t\\t<div class="innerAll text-center border-bottom text-muted-dark">\\n\\t\\t\\t\\t\\t\\t\\t\\t\\t<strong>Account</strong>\\n\\t\\t\\t\\t\\t\\t\\t\\t\\t<button class="btn btn-xs btn-default close-discover">\\n\\t\\t\\t\\t\\t\\t\\t\\t\\t\\t<i class="fa fa-fw fa-times"></i>\\n\\t\\t\\t\\t\\t\\t\\t\\t\\t</button>\\n\\t\\t\\t\\t\\t\\t\\t\\t</div>\\n\\t\\t\\t\\t\\t\\t\\t\\t<ul class="animated fadeIn">\\n\\t\\t\\t\\t\\t\\t\\t\\t\\t<li>\\n\\t\\t\\t\\t\\t\\t\\t\\t\\t\\t<a href="profile_resume.html?lang=en"><i class="fa fa-user"></i> Profile / CV</a>\\n\\t\\t\\t\\t\\t\\t\\t\\t\\t</li>\\n\\t\\t\\t\\t\\t\\t\\t\\t\\t<li>\\n\\t\\t\\t\\t\\t\\t\\t\\t\\t\\t<a href="my_account.html?lang=en"><i class="fa fa-user"></i> My Account</a>\\n\\t\\t\\t\\t\\t\\t\\t\\t\\t</li>\\n\\t\\t\\t\\t\\t\\t\\t\\t\\t<li>\\n\\t\\t\\t\\t\\t\\t\\t\\t\\t\\t<a href="login.html?lang=en" class="no-ajaxify"><i class="fa fa-lock"></i> Login</a>\\n\\t\\t\\t\\t\\t\\t\\t\\t\\t</li>\\n\\t\\t\\t\\t\\t\\t\\t\\t\\t<li>\\n\\t\\t\\t\\t\\t\\t\\t\\t\\t\\t<a href="signup.html?lang=en" class="no-ajaxify"><i class="fa fa-pencil"></i> Signup</a>\\n\\t\\t\\t\\t\\t\\t\\t\\t\\t</li>\\n\\t\\t\\t\\t\\t\\t\\t\\t</ul>\\n\\t\\t\\t\\t\\t\\t\\t</div>\\n\\t\\t\\t\\t\\t\\t</li>\\n\\t\\t\\t\\t\\t\\t<li>\\n\\t\\t\\t\\t\\t\\t\\t<a href="error.html?lang=en" class="glyphicons warning_sign"><i></i><span>Error</span></a>\\n\\t\\t\\t\\t\\t\\t</li>\\n\\t\\t\\t\\t\\t</ul>\\n\\t\\t\\t\\t</div>\\n\\t\\t\\t</div>\\n\\t\\t\\t<!-- // Sidebar Menu END -->\\n\\t\\t\\t<!-- Content -->\\n\\t\\t\\t<div id="content">\\n\\t\\t\\t\\t<nav class="navbar hidden-print main " role="navigation">\\n\\t\\t\\t\\t\\t<div class="navbar-header pull-left">\\n\\t\\t\\t\\t\\t\\t<div class="user-action user-action-btn-navbar pull-left border-right">\\n\\t\\t\\t\\t\\t\\t\\t<button class="btn btn-sm btn-navbar btn-inverse btn-stroke">\\n\\t\\t\\t\\t\\t\\t\\t\\t<i class="fa fa-bars fa-2x"></i>\\n\\t\\t\\t\\t\\t\\t\\t</button>\\n\\t\\t\\t\\t\\t\\t</div>\\n\\t\\t\\t\\t\\t</div>\\n\\t\\t\\t\\t\\t<ul class="main pull-right ">\\n\\t\\t\\t\\t\\t\\t<li class="dropdown notif notifications hidden-xs">\\n\\t\\t\\t\\t\\t\\t\\t<a href="" class="dropdown-toggle" data-toggle="dropdown"><i class="icon-bell-fill"></i> <span class="label label-danger">5</span></a>\\n\\t\\t\\t\\t\\t\\t\\t<ul class="dropdown-menu chat media-list pull-right">\\n\\t\\t\\t\\t\\t\\t\\t\\t<li class="media">\\n\\t\\t\\t\\t\\t\\t\\t\\t\\t<a class="pull-left" href="#"> <img class="media-object thumb" src="../assets/images/people/100/15.jpg" alt="50x50"\\n\\t\\t\\t\\t\\t\\t\\t\\t\\twidth="50" /> </a>\\n\\t\\t\\t\\t\\t\\t\\t\\t\\t<div class="media-body">\\n\\t\\t\\t\\t\\t\\t\\t\\t\\t\\t<span class="label label-default pull-right">5 min</span>\\n\\t\\t\\t\\t\\t\\t\\t\\t\\t\\t<h5 class="media-heading">Adrian D.</h5>\\n\\t\\t\\t\\t\\t\\t\\t\\t\\t\\t<p class="margin-none">\\n\\t\\t\\t\\t\\t\\t\\t\\t\\t\\t\\tLorem ipsum dolor sit amet, consectetur adipisicing\\n\\t\\t\\t\\t\\t\\t\\t\\t\\t\\t\\telit.\\n\\t\\t\\t\\t\\t\\t\\t\\t\\t\\t</p>\\n\\t\\t\\t\\t\\t\\t\\t\\t\\t</div>\\n\\t\\t\\t\\t\\t\\t\\t\\t</li>\\n\\t\\t\\t\\t\\t\\t\\t\\t<li class="media">\\n\\t\\t\\t\\t\\t\\t\\t\\t\\t<a class="pull-left" href="#"> <img class="media-object thumb" src="../assets/images/people/100/16.jpg" alt="50x50"\\n\\t\\t\\t\\t\\t\\t\\t\\t\\twidth="50" /> </a>\\n\\t\\t\\t\\t\\t\\t\\t\\t\\t<div class="media-body">\\n\\t\\t\\t\\t\\t\\t\\t\\t\\t\\t<span class="label label-default pull-right">2 days</span>\\n\\t\\t\\t\\t\\t\\t\\t\\t\\t\\t<h5 class="media-heading">Jane B.</h5>\\n\\t\\t\\t\\t\\t\\t\\t\\t\\t\\t<p class="margin-none">\\n\\t\\t\\t\\t\\t\\t\\t\\t\\t\\t\\tLorem ipsum dolor sit amet, consectetur adipisicing\\n\\t\\t\\t\\t\\t\\t\\t\\t\\t\\t\\telit.\\n\\t\\t\\t\\t\\t\\t\\t\\t\\t\\t</p>\\n\\t\\t\\t\\t\\t\\t\\t\\t\\t</div>\\n\\t\\t\\t\\t\\t\\t\\t\\t</li>\\n\\t\\t\\t\\t\\t\\t\\t\\t<li class="media">\\n\\t\\t\\t\\t\\t\\t\\t\\t\\t<a class="pull-left" href="#"> <img class="media-object thumb" src="../assets/images/people/100/17.jpg" alt="50x50"\\n\\t\\t\\t\\t\\t\\t\\t\\t\\twidth="50" /> </a>\\n\\t\\t\\t\\t\\t\\t\\t\\t\\t<div class="media-body">\\n\\t\\t\\t\\t\\t\\t\\t\\t\\t\\t<span class="label label-default pull-right">3 days</span>\\n\\t\\t\\t\\t\\t\\t\\t\\t\\t\\t<h5 class="media-heading">Andrew M.</h5>\\n\\t\\t\\t\\t\\t\\t\\t\\t\\t\\t<p class="margin-none">\\n\\t\\t\\t\\t\\t\\t\\t\\t\\t\\t\\tLorem ipsum dolor sit amet, consectetur adipisicing\\n\\t\\t\\t\\t\\t\\t\\t\\t\\t\\t\\telit.\\n\\t\\t\\t\\t\\t\\t\\t\\t\\t\\t</p>\\n\\t\\t\\t\\t\\t\\t\\t\\t\\t</div>\\n\\t\\t\\t\\t\\t\\t\\t\\t</li>\\n\\t\\t\\t\\t\\t\\t\\t\\t<li>\\n\\t\\t\\t\\t\\t\\t\\t\\t\\t<a href="#" class="btn btn-primary"><i class="fa fa-list"></i> <span>View all messages</span></a>\\n\\t\\t\\t\\t\\t\\t\\t\\t</li>\\n\\t\\t\\t\\t\\t\\t\\t</ul>\\n\\t\\t\\t\\t\\t\\t</li>\\n\\t\\t\\t\\t\\t\\t<li class="dropdown username">\\n\\t\\t\\t\\t\\t\\t\\t<a href="" class="dropdown-toggle" data-toggle="dropdown"> <img src="../assets/images/people/35/2.jpg" class="img-circle" width="30" />Bill Jonson <span class="caret"></span> </a>\\n\\t\\t\\t\\t\\t\\t\\t<ul class="dropdown-menu pull-right">\\n\\t\\t\\t\\t\\t\\t\\t\\t<li>\\n\\t\\t\\t\\t\\t\\t\\t\\t\\t<a href="my_account.html?lang=en" class="glyphicons user"><i></i> Account</a>\\n\\t\\t\\t\\t\\t\\t\\t\\t</li>\\n\\t\\t\\t\\t\\t\\t\\t\\t<li>\\n\\t\\t\\t\\t\\t\\t\\t\\t\\t<a href="messages.html?lang=en" class="glyphicons envelope"><i></i>Messages</a>\\n\\t\\t\\t\\t\\t\\t\\t\\t</li>\\n\\t\\t\\t\\t\\t\\t\\t\\t<li>\\n\\t\\t\\t\\t\\t\\t\\t\\t\\t<a href="index.html?lang=en" class="glyphicons settings"><i></i>Settings</a>\\n\\t\\t\\t\\t\\t\\t\\t\\t</li>\\n\\t\\t\\t\\t\\t\\t\\t\\t<li>\\n\\t\\t\\t\\t\\t\\t\\t\\t\\t<a href="login.html?lang=en" class="glyphicons lock no-ajaxify"><i></i>Logout</a>\\n\\t\\t\\t\\t\\t\\t\\t\\t</li>\\n\\t\\t\\t\\t\\t\\t\\t</ul>\\n\\t\\t\\t\\t\\t\\t</li>\\n\\t\\t\\t\\t\\t</ul>\\n\\t\\t\\t\\t\\t<div class="navbar-collapse collapse">\\n\\t\\t\\t\\t\\t\\t\', escape=False)'
p97
sI114
S'if response.menu:'
p98
sI115
S"    response.write('\\n\\t\\t\\t\\t\\t\\t\\t', escape=False)"
p99
sI116
S"    response.write(MENU(response.menu, _class='mobile-menu nav' if is_mobile else 'nav',mobile=is_mobile,li_class='dropdown',ul_class='dropdown-menu'))"
p100
sI117
S"    response.write('\\n\\t\\t\\t\\t\\t\\t\\t', escape=False)"
p101
sI118
S'    pass'
p102
sI119
S'response.write(\'\\n\\t\\t\\t\\t\\t</div>\\n\\t\\t\\t\\t</nav>\\n\\t\\t\\t\\t<!-- // END navbar -->\\n\\t\\t\\t\\t<div class="innerLR">\\n\\t\\t\\t\\t\\t<h2 class="margin-none">Analytics &nbsp;<i class="fa fa-fw fa-pencil text-muted"></i></h2>\\n\\t\\t\\t\\t\\t<div class="row">\\n\\t\\t\\t\\t\\t\\t<div class="col-md-8">\\n\\t\\t\\t\\t\\t\\t\\t<div class="row">\\n\\t\\t\\t\\t\\t\\t\\t\\t<div class="col-md-6">\\n\\t\\t\\t\\t\\t\\t\\t\\t\\t<div class="widget innerAll text-center">\\n\\t\\t\\t\\t\\t\\t\\t\\t\\t\\t<h3 class="innerT">Overall Performance</h3>\\n\\t\\t\\t\\t\\t\\t\\t\\t\\t\\t<p class="innerB margin-none text-xlarge text-condensed strong text-primary">\\n\\t\\t\\t\\t\\t\\t\\t\\t\\t\\t\\t+281\\n\\t\\t\\t\\t\\t\\t\\t\\t\\t\\t</p>\\n\\t\\t\\t\\t\\t\\t\\t\\t\\t\\t<div class="innerTB">\\n\\t\\t\\t\\t\\t\\t\\t\\t\\t\\t\\t<div class="sparkline" sparkHeight="57">\\n\\t\\t\\t\\t\\t\\t\\t\\t\\t\\t\\t\\t0:10,7:3,5:5,6:4,3:7,7:3,5:5,6:4,2:8,3:7,7:3,5:5,0:10\\n\\t\\t\\t\\t\\t\\t\\t\\t\\t\\t\\t</div>\\n\\t\\t\\t\\t\\t\\t\\t\\t\\t\\t</div>\\n\\t\\t\\t\\t\\t\\t\\t\\t\\t</div>\\n\\t\\t\\t\\t\\t\\t\\t\\t</div>\\n\\t\\t\\t\\t\\t\\t\\t\\t<div class="col-md-6">\\n\\t\\t\\t\\t\\t\\t\\t\\t\\t<div class="widget widget-tabs widget-tabs-double-2 border-bottom widget-tabs-responsive">\\n\\t\\t\\t\\t\\t\\t\\t\\t\\t\\t<div class="widget-body">\\n\\t\\t\\t\\t\\t\\t\\t\\t\\t\\t\\t<div class="tab-content">\\n\\t\\t\\t\\t\\t\\t\\t\\t\\t\\t\\t\\t<!-- Tab content -->\\n\\t\\t\\t\\t\\t\\t\\t\\t\\t\\t\\t\\t<div id="tabReports" class="tab-pane active widget-body-regular innerAll inner-2x text-center">\\n\\t\\t\\t\\t\\t\\t\\t\\t\\t\\t\\t\\t\\t<div data-percent="85" data-size="95" class="easy-pie inline-block primary" data-scale-color="false"\\n\\t\\t\\t\\t\\t\\t\\t\\t\\t\\t\\t\\t\\tdata-track-color="#efefef" data-line-width="8">\\n\\t\\t\\t\\t\\t\\t\\t\\t\\t\\t\\t\\t\\t\\t<div class="value text-center">\\n\\t\\t\\t\\t\\t\\t\\t\\t\\t\\t\\t\\t\\t\\t\\t<span class="strong"><i class="icon-graph-up-1 fa-3x text-primary"></i> </span>\\n\\t\\t\\t\\t\\t\\t\\t\\t\\t\\t\\t\\t\\t\\t</div>\\n\\t\\t\\t\\t\\t\\t\\t\\t\\t\\t\\t\\t\\t</div>\\n\\t\\t\\t\\t\\t\\t\\t\\t\\t\\t\\t\\t</div>\\n\\t\\t\\t\\t\\t\\t\\t\\t\\t\\t\\t\\t<!-- // Tab content END -->\\n\\t\\t\\t\\t\\t\\t\\t\\t\\t\\t\\t\\t<!-- Tab content -->\\n\\t\\t\\t\\t\\t\\t\\t\\t\\t\\t\\t\\t<div id="tabIncome" class="tab-pane widget-body-regular innerAll inner-2x text-center">\\n\\t\\t\\t\\t\\t\\t\\t\\t\\t\\t\\t\\t\\tLorem ipsum dolor sit amet, consectetur adipisicing elit. Reprehenderit, omnis\\n\\t\\t\\t\\t\\t\\t\\t\\t\\t\\t\\t\\t\\tminus voluptatibus assumenda sint\\n\\t\\t\\t\\t\\t\\t\\t\\t\\t\\t\\t\\t\\tautem dolorum. Rem, cupiditate,\\n\\t\\t\\t\\t\\t\\t\\t\\t\\t\\t\\t\\t\\tsed, optio est cumque repudiandae\\n\\t\\t\\t\\t\\t\\t\\t\\t\\t\\t\\t\\t\\tquo natus dignissimos praesentium\\n\\t\\t\\t\\t\\t\\t\\t\\t\\t\\t\\t\\t\\talias nihil aspernatur?\\n\\t\\t\\t\\t\\t\\t\\t\\t\\t\\t\\t\\t</div>\\n\\t\\t\\t\\t\\t\\t\\t\\t\\t\\t\\t\\t<!-- // Tab content END -->\\n\\t\\t\\t\\t\\t\\t\\t\\t\\t\\t\\t\\t<!-- Tab content -->\\n\\t\\t\\t\\t\\t\\t\\t\\t\\t\\t\\t\\t<div id="tabAccounts" class="tab-pane widget-body-regular innerAll inner-2x text-center">\\n\\t\\t\\t\\t\\t\\t\\t\\t\\t\\t\\t\\t\\tLorem ipsum dolor sit amet, consectetur adipisicing elit. Hic qui natus deserunt\\n\\t\\t\\t\\t\\t\\t\\t\\t\\t\\t\\t\\t\\tatque quae laborum. Porro, eveniet,\\n\\t\\t\\t\\t\\t\\t\\t\\t\\t\\t\\t\\t\\tvoluptatem, obcaecati quisquam\\n\\t\\t\\t\\t\\t\\t\\t\\t\\t\\t\\t\\t\\ttempore architecto nostrum quis\\n\\t\\t\\t\\t\\t\\t\\t\\t\\t\\t\\t\\t\\teius corrupti ea non facilis quidem.\\n\\t\\t\\t\\t\\t\\t\\t\\t\\t\\t\\t\\t</div>\\n\\t\\t\\t\\t\\t\\t\\t\\t\\t\\t\\t\\t<!-- // Tab content END -->\\n\\t\\t\\t\\t\\t\\t\\t\\t\\t\\t\\t</div>\\n\\t\\t\\t\\t\\t\\t\\t\\t\\t\\t</div>\\n\\t\\t\\t\\t\\t\\t\\t\\t\\t\\t<!-- Tabs Heading -->\\n\\t\\t\\t\\t\\t\\t\\t\\t\\t\\t<div class="widget-head border-top-none bg-gray">\\n\\t\\t\\t\\t\\t\\t\\t\\t\\t\\t\\t<ul>\\n\\t\\t\\t\\t\\t\\t\\t\\t\\t\\t\\t\\t<li class="active">\\n\\t\\t\\t\\t\\t\\t\\t\\t\\t\\t\\t\\t\\t<a class="glyphicons notes" href="#tabReports"\\n\\t\\t\\t\\t\\t\\t\\t\\t\\t\\t\\t\\t\\tdata-toggle="tab"><i></i><span>Reports</span></a>\\n\\t\\t\\t\\t\\t\\t\\t\\t\\t\\t\\t\\t</li>\\n\\t\\t\\t\\t\\t\\t\\t\\t\\t\\t\\t\\t<li>\\n\\t\\t\\t\\t\\t\\t\\t\\t\\t\\t\\t\\t\\t<a class="glyphicons credit_card" href="#tabIncome"\\n\\t\\t\\t\\t\\t\\t\\t\\t\\t\\t\\t\\t\\tdata-toggle="tab"><i></i><span>Income</span></a>\\n\\t\\t\\t\\t\\t\\t\\t\\t\\t\\t\\t\\t</li>\\n\\t\\t\\t\\t\\t\\t\\t\\t\\t\\t\\t\\t<li>\\n\\t\\t\\t\\t\\t\\t\\t\\t\\t\\t\\t\\t\\t<a class="glyphicons user" href="#tabAccounts"\\n\\t\\t\\t\\t\\t\\t\\t\\t\\t\\t\\t\\t\\tdata-toggle="tab"><i></i><span>Accounts</span></a>\\n\\t\\t\\t\\t\\t\\t\\t\\t\\t\\t\\t\\t</li>\\n\\t\\t\\t\\t\\t\\t\\t\\t\\t\\t\\t</ul>\\n\\t\\t\\t\\t\\t\\t\\t\\t\\t\\t</div>\\n\\t\\t\\t\\t\\t\\t\\t\\t\\t\\t<!-- // Tabs Heading END -->\\n\\t\\t\\t\\t\\t\\t\\t\\t\\t</div>\\n\\t\\t\\t\\t\\t\\t\\t\\t\\t<!-- //Widget -->\\n\\t\\t\\t\\t\\t\\t\\t\\t</div>\\n\\t\\t\\t\\t\\t\\t\\t\\t<!-- //Col -->\\n\\t\\t\\t\\t\\t\\t\\t</div>\\n\\t\\t\\t\\t\\t\\t\\t<!-- //Row -->\\n\\t\\t\\t\\t\\t\\t\\t<!-- Widget -->\\n\\t\\t\\t\\t\\t\\t\\t<div class=" widget widget-body-white ">\\n\\t\\t\\t\\t\\t\\t\\t\\t<div class="widget-head height-auto ">\\n\\t\\t\\t\\t\\t\\t\\t\\t\\t<div class="row row-merge ">\\n\\t\\t\\t\\t\\t\\t\\t\\t\\t\\t<div class="col-md-6">\\n\\t\\t\\t\\t\\t\\t\\t\\t\\t\\t\\t<div class="innerAll inner-2x text-center">\\n\\t\\t\\t\\t\\t\\t\\t\\t\\t\\t\\t\\t<h5 class="margin-none innerB half">Gross Revenue</h5>\\n\\t\\t\\t\\t\\t\\t\\t\\t\\t\\t\\t\\t<h4 class="text-medium strong text-primary margin-none">10,201.00</h4>\\n\\t\\t\\t\\t\\t\\t\\t\\t\\t\\t\\t</div>\\n\\t\\t\\t\\t\\t\\t\\t\\t\\t\\t</div>\\n\\t\\t\\t\\t\\t\\t\\t\\t\\t\\t<div class="col-md-6">\\n\\t\\t\\t\\t\\t\\t\\t\\t\\t\\t\\t<div class="innerAll inner-2x text-center">\\n\\t\\t\\t\\t\\t\\t\\t\\t\\t\\t\\t\\t<h5 class="margin-none innerB half">Net Revenue</h5>\\n\\t\\t\\t\\t\\t\\t\\t\\t\\t\\t\\t\\t<h4 class="text-medium text-primary strong margin-none">8,812.40</h4>\\n\\t\\t\\t\\t\\t\\t\\t\\t\\t\\t\\t</div>\\n\\t\\t\\t\\t\\t\\t\\t\\t\\t\\t</div>\\n\\t\\t\\t\\t\\t\\t\\t\\t\\t</div>\\n\\t\\t\\t\\t\\t\\t\\t\\t</div>\\n\\t\\t\\t\\t\\t\\t\\t\\t<div class="widget-body innerAll">\\n\\t\\t\\t\\t\\t\\t\\t\\t\\t<!-- Chart with lines and fill with no points -->\\n\\t\\t\\t\\t\\t\\t\\t\\t\\t<div id="chart_lines_fill_nopoints_2" class="flotchart-holder"></div>\\n\\t\\t\\t\\t\\t\\t\\t\\t</div>\\n\\t\\t\\t\\t\\t\\t\\t</div>\\n\\t\\t\\t\\t\\t\\t\\t<!-- //Widget -->\\n\\t\\t\\t\\t\\t\\t\\t<div class="row">\\n\\t\\t\\t\\t\\t\\t\\t\\t<div class="col-md-6">\\n\\t\\t\\t\\t\\t\\t\\t\\t\\t<!-- Widget -->\\n\\t\\t\\t\\t\\t\\t\\t\\t\\t<div class="widget">\\n\\t\\t\\t\\t\\t\\t\\t\\t\\t\\t<div class="bg-primary text-center innerAll">\\n\\t\\t\\t\\t\\t\\t\\t\\t\\t\\t\\t<div class="innerTB">\\n\\t\\t\\t\\t\\t\\t\\t\\t\\t\\t\\t\\t<h4 class="innerTB text-white">Today\\\'s Weather</h4>\\n\\t\\t\\t\\t\\t\\t\\t\\t\\t\\t\\t\\t<div class="strong text-xlarge text-white">\\n\\t\\t\\t\\t\\t\\t\\t\\t\\t\\t\\t\\t\\t<i class="fa fa-cloud"></i> 26<sup>&deg;</sup>\\n\\t\\t\\t\\t\\t\\t\\t\\t\\t\\t\\t\\t</div>\\n\\t\\t\\t\\t\\t\\t\\t\\t\\t\\t\\t</div>\\n\\t\\t\\t\\t\\t\\t\\t\\t\\t\\t</div>\\n\\t\\t\\t\\t\\t\\t\\t\\t\\t\\t<div class="row row-merge">\\n\\t\\t\\t\\t\\t\\t\\t\\t\\t\\t\\t<div class="col-md-6">\\n\\t\\t\\t\\t\\t\\t\\t\\t\\t\\t\\t\\t<div class="text-center innerAll">\\n\\t\\t\\t\\t\\t\\t\\t\\t\\t\\t\\t\\t\\t<p class="margin-none">\\n\\t\\t\\t\\t\\t\\t\\t\\t\\t\\t\\t\\t\\t\\t<i class="fa icon-wind-speed-censor fa-2x"></i>\\n\\t\\t\\t\\t\\t\\t\\t\\t\\t\\t\\t\\t\\t</p>\\n\\t\\t\\t\\t\\t\\t\\t\\t\\t\\t\\t\\t\\t<p class="lead margin-none strong">\\n\\t\\t\\t\\t\\t\\t\\t\\t\\t\\t\\t\\t\\t\\t15 m/h\\n\\t\\t\\t\\t\\t\\t\\t\\t\\t\\t\\t\\t\\t</p>\\n\\t\\t\\t\\t\\t\\t\\t\\t\\t\\t\\t\\t</div>\\n\\t\\t\\t\\t\\t\\t\\t\\t\\t\\t\\t</div>\\n\\t\\t\\t\\t\\t\\t\\t\\t\\t\\t\\t<div class="col-md-6">\\n\\t\\t\\t\\t\\t\\t\\t\\t\\t\\t\\t\\t<div class="text-center innerAll">\\n\\t\\t\\t\\t\\t\\t\\t\\t\\t\\t\\t\\t\\t<p class="margin-none">\\n\\t\\t\\t\\t\\t\\t\\t\\t\\t\\t\\t\\t\\t\\t<i class="fa icon-water fa-2x"></i>\\n\\t\\t\\t\\t\\t\\t\\t\\t\\t\\t\\t\\t\\t</p>\\n\\t\\t\\t\\t\\t\\t\\t\\t\\t\\t\\t\\t\\t<p class="lead margin-none strong">\\n\\t\\t\\t\\t\\t\\t\\t\\t\\t\\t\\t\\t\\t\\t40%\\n\\t\\t\\t\\t\\t\\t\\t\\t\\t\\t\\t\\t\\t</p>\\n\\t\\t\\t\\t\\t\\t\\t\\t\\t\\t\\t\\t</div>\\n\\t\\t\\t\\t\\t\\t\\t\\t\\t\\t\\t</div>\\n\\t\\t\\t\\t\\t\\t\\t\\t\\t\\t</div>\\n\\t\\t\\t\\t\\t\\t\\t\\t\\t\\t<!-- //Widget -->\\n\\t\\t\\t\\t\\t\\t\\t\\t\\t</div>\\n\\t\\t\\t\\t\\t\\t\\t\\t</div>\\n\\t\\t\\t\\t\\t\\t\\t\\t<div class="col-md-6">\\n\\t\\t\\t\\t\\t\\t\\t\\t\\t<div class="widget">\\n\\t\\t\\t\\t\\t\\t\\t\\t\\t\\t<div class="widget-body innerB half">\\n\\t\\t\\t\\t\\t\\t\\t\\t\\t\\t\\t<!-- Chart with lines and fill with no points -->\\n\\t\\t\\t\\t\\t\\t\\t\\t\\t\\t\\t<div id="chart_mixed_1" class="flotchart-holder" style="height: 182px"></div>\\n\\t\\t\\t\\t\\t\\t\\t\\t\\t\\t</div>\\n\\t\\t\\t\\t\\t\\t\\t\\t\\t</div>\\n\\t\\t\\t\\t\\t\\t\\t\\t</div>\\n\\t\\t\\t\\t\\t\\t\\t</div>\\n\\t\\t\\t\\t\\t\\t\\t<!-- //Row -->\\n\\t\\t\\t\\t\\t\\t\\t<!-- Widget\\t -->\\n\\t\\t\\t\\t\\t\\t\\t<div class="widget">\\n\\t\\t\\t\\t\\t\\t\\t\\t<div class="widget-head innerAll half">\\n\\t\\t\\t\\t\\t\\t\\t\\t\\t<h4 class="margin-none"><i class="fa fa-fw icon-star"></i> Trends</h4>\\n\\t\\t\\t\\t\\t\\t\\t\\t</div>\\n\\t\\t\\t\\t\\t\\t\\t\\t<!-- Widget -->\\n\\t\\t\\t\\t\\t\\t\\t\\t<div class="widget-body innerAll inner-2x">\\n\\t\\t\\t\\t\\t\\t\\t\\t\\t<table class="table table-striped margin-none">\\n\\t\\t\\t\\t\\t\\t\\t\\t\\t\\t<thead>\\n\\t\\t\\t\\t\\t\\t\\t\\t\\t\\t\\t<tr>\\n\\t\\t\\t\\t\\t\\t\\t\\t\\t\\t\\t\\t<th>Box office</th>\\n\\t\\t\\t\\t\\t\\t\\t\\t\\t\\t\\t\\t<th class="text-center">Cash</th>\\n\\t\\t\\t\\t\\t\\t\\t\\t\\t\\t\\t\\t<th class="text-right" style="width: 100px;">Trend</th>\\n\\t\\t\\t\\t\\t\\t\\t\\t\\t\\t\\t</tr>\\n\\t\\t\\t\\t\\t\\t\\t\\t\\t\\t</thead>\\n\\t\\t\\t\\t\\t\\t\\t\\t\\t\\t<tbody>\\n\\t\\t\\t\\t\\t\\t\\t\\t\\t\\t\\t<tr>\\n\\t\\t\\t\\t\\t\\t\\t\\t\\t\\t\\t\\t<td><strong>1.</strong>Frozen</td>\\n\\t\\t\\t\\t\\t\\t\\t\\t\\t\\t\\t\\t<td class="text-center">&euro;8,718,939</td>\\n\\t\\t\\t\\t\\t\\t\\t\\t\\t\\t\\t\\t<td class="text-right"><div class="sparkline" style="width: 100px;" sparkHeight="20" sparkType="line"\\n\\t\\t\\t\\t\\t\\t\\t\\t\\t\\t\\t\\tsparkWidth="100%" sparkLineWidth="2"\\n\\t\\t\\t\\t\\t\\t\\t\\t\\t\\t\\t\\tsparkLineColor="#3695d5" sparkFillColor=""\\n\\t\\t\\t\\t\\t\\t\\t\\t\\t\\t\\t\\tdata-data="[234,411,256,364,210,149,471,484,271,107]"></div></td>\\n\\t\\t\\t\\t\\t\\t\\t\\t\\t\\t\\t</tr>\\n\\t\\t\\t\\t\\t\\t\\t\\t\\t\\t\\t<tr>\\n\\t\\t\\t\\t\\t\\t\\t\\t\\t\\t\\t\\t<td><strong>2.</strong>The Hobbit 2</td>\\n\\t\\t\\t\\t\\t\\t\\t\\t\\t\\t\\t\\t<td class="text-center">&euro;7,800,000</td>\\n\\t\\t\\t\\t\\t\\t\\t\\t\\t\\t\\t\\t<td class="text-right"><div class="sparkline" style="width: 100px;" sparkHeight="20" sparkType="line"\\n\\t\\t\\t\\t\\t\\t\\t\\t\\t\\t\\t\\tsparkWidth="100%" sparkLineWidth="2"\\n\\t\\t\\t\\t\\t\\t\\t\\t\\t\\t\\t\\tsparkLineColor="#3695d5" sparkFillColor=""\\n\\t\\t\\t\\t\\t\\t\\t\\t\\t\\t\\t\\tdata-data="[348,417,191,457,422,127,469,103,458,197]"></div></td>\\n\\t\\t\\t\\t\\t\\t\\t\\t\\t\\t\\t</tr>\\n\\t\\t\\t\\t\\t\\t\\t\\t\\t\\t\\t<tr>\\n\\t\\t\\t\\t\\t\\t\\t\\t\\t\\t\\t\\t<td><strong>3.</strong>The Wolf of Wall Street</td>\\n\\t\\t\\t\\t\\t\\t\\t\\t\\t\\t\\t\\t<td class="text-center">&euro;5,671,036</td>\\n\\t\\t\\t\\t\\t\\t\\t\\t\\t\\t\\t\\t<td class="text-right"><div class="sparkline" style="width: 100px;" sparkHeight="20" sparkType="line"\\n\\t\\t\\t\\t\\t\\t\\t\\t\\t\\t\\t\\tsparkWidth="100%" sparkLineWidth="2"\\n\\t\\t\\t\\t\\t\\t\\t\\t\\t\\t\\t\\tsparkLineColor="#3695d5" sparkFillColor=""\\n\\t\\t\\t\\t\\t\\t\\t\\t\\t\\t\\t\\tdata-data="[339,237,103,112,287,398,295,493,368,209]"></div></td>\\n\\t\\t\\t\\t\\t\\t\\t\\t\\t\\t\\t</tr>\\n\\t\\t\\t\\t\\t\\t\\t\\t\\t\\t\\t<tr>\\n\\t\\t\\t\\t\\t\\t\\t\\t\\t\\t\\t\\t<td><strong>4.</strong>Iron Man 3</td>\\n\\t\\t\\t\\t\\t\\t\\t\\t\\t\\t\\t\\t<td class="text-center">&euro;409,013,994</td>\\n\\t\\t\\t\\t\\t\\t\\t\\t\\t\\t\\t\\t<td class="text-right"><div class="sparkline" style="width: 100px;" sparkHeight="20" sparkType="line"\\n\\t\\t\\t\\t\\t\\t\\t\\t\\t\\t\\t\\tsparkWidth="100%" sparkLineWidth="2"\\n\\t\\t\\t\\t\\t\\t\\t\\t\\t\\t\\t\\tsparkLineColor="#3695d5" sparkFillColor=""\\n\\t\\t\\t\\t\\t\\t\\t\\t\\t\\t\\t\\tdata-data="[108,415,103,280,158,393,211,172,208,431]"></div></td>\\n\\t\\t\\t\\t\\t\\t\\t\\t\\t\\t\\t</tr>\\n\\t\\t\\t\\t\\t\\t\\t\\t\\t\\t\\t<tr>\\n\\t\\t\\t\\t\\t\\t\\t\\t\\t\\t\\t\\t<td><strong>5.</strong>Catching Fire</td>\\n\\t\\t\\t\\t\\t\\t\\t\\t\\t\\t\\t\\t<td class="text-center">&euro;398,327,026</td>\\n\\t\\t\\t\\t\\t\\t\\t\\t\\t\\t\\t\\t<td class="text-right"><div class="sparkline" style="width: 100px;" sparkHeight="20" sparkType="line"\\n\\t\\t\\t\\t\\t\\t\\t\\t\\t\\t\\t\\tsparkWidth="100%" sparkLineWidth="2"\\n\\t\\t\\t\\t\\t\\t\\t\\t\\t\\t\\t\\tsparkLineColor="#3695d5" sparkFillColor=""\\n\\t\\t\\t\\t\\t\\t\\t\\t\\t\\t\\t\\tdata-data="[371,389,208,141,179,156,243,211,153,200]"></div></td>\\n\\t\\t\\t\\t\\t\\t\\t\\t\\t\\t\\t</tr>\\n\\t\\t\\t\\t\\t\\t\\t\\t\\t\\t\\t<tr>\\n\\t\\t\\t\\t\\t\\t\\t\\t\\t\\t\\t\\t<td><strong>6.</strong>Despicable Me 2</td>\\n\\t\\t\\t\\t\\t\\t\\t\\t\\t\\t\\t\\t<td class="text-center">&euro;367,835,345</td>\\n\\t\\t\\t\\t\\t\\t\\t\\t\\t\\t\\t\\t<td class="text-right"><div class="sparkline" style="width: 100px;" sparkHeight="20" sparkType="line"\\n\\t\\t\\t\\t\\t\\t\\t\\t\\t\\t\\t\\tsparkWidth="100%" sparkLineWidth="2"\\n\\t\\t\\t\\t\\t\\t\\t\\t\\t\\t\\t\\tsparkLineColor="#3695d5" sparkFillColor=""\\n\\t\\t\\t\\t\\t\\t\\t\\t\\t\\t\\t\\tdata-data="[200,365,202,215,186,114,296,138,293,304]"></div></td>\\n\\t\\t\\t\\t\\t\\t\\t\\t\\t\\t\\t</tr>\\n\\t\\t\\t\\t\\t\\t\\t\\t\\t\\t</tbody>\\n\\t\\t\\t\\t\\t\\t\\t\\t\\t</table>\\n\\t\\t\\t\\t\\t\\t\\t\\t</div>\\n\\t\\t\\t\\t\\t\\t\\t\\t<!-- // End Widget Body -->\\n\\t\\t\\t\\t\\t\\t\\t</div>\\n\\t\\t\\t\\t\\t\\t\\t<!-- // End Widget -->\\n\\t\\t\\t\\t\\t\\t\\t<!-- Widget\\t -->\\n\\t\\t\\t\\t\\t\\t\\t<div class="widget widget-body-white overflow-hidden">\\n\\t\\t\\t\\t\\t\\t\\t\\t<div class="widget-head innerAll half">\\n\\t\\t\\t\\t\\t\\t\\t\\t\\t<h4 class="margin-none"><i class="fa fa-fw icon-wallet"></i> Sales Volume</h4>\\n\\t\\t\\t\\t\\t\\t\\t\\t</div>\\n\\t\\t\\t\\t\\t\\t\\t\\t<div class="widget-body innerAll">\\n\\t\\t\\t\\t\\t\\t\\t\\t\\t<!-- Horizontal Bars Chart -->\\n\\t\\t\\t\\t\\t\\t\\t\\t\\t<div id="chart_horizontal_bars" class="flotchart-holder"></div>\\n\\t\\t\\t\\t\\t\\t\\t\\t</div>\\n\\t\\t\\t\\t\\t\\t\\t</div>\\n\\t\\t\\t\\t\\t\\t\\t<!-- //Widget -->\\n\\t\\t\\t\\t\\t\\t</div>\\n\\t\\t\\t\\t\\t\\t<!-- //  End Col -->\\n\\t\\t\\t\\t\\t\\t<div class="col-md-4">\\n\\t\\t\\t\\t\\t\\t\\t<!-- Widget -->\\n\\t\\t\\t\\t\\t\\t\\t<div class="widget widget-body-gray">\\n\\t\\t\\t\\t\\t\\t\\t\\t<div class="widget-body padding-none">\\n\\t\\t\\t\\t\\t\\t\\t\\t\\t<div class="bg-primary innerAll">\\n\\t\\t\\t\\t\\t\\t\\t\\t\\t\\t<div class="text-large text-white pull-right">\\n\\t\\t\\t\\t\\t\\t\\t\\t\\t\\t\\t&euro;1000\\n\\t\\t\\t\\t\\t\\t\\t\\t\\t\\t</div>\\n\\t\\t\\t\\t\\t\\t\\t\\t\\t\\t<h4 class="text-white strong text-medium">Earnings</h4>\\n\\t\\t\\t\\t\\t\\t\\t\\t\\t\\t<h5 class="text-white margin-none">Today\\\'s earnings</h5>\\n\\t\\t\\t\\t\\t\\t\\t\\t\\t\\t<div class="separator bottom"></div>\\n\\t\\t\\t\\t\\t\\t\\t\\t\\t\\t<div class="progress primary progress-mini  margin-none">\\n\\t\\t\\t\\t\\t\\t\\t\\t\\t\\t\\t<div class="progress-bar progress-bar-white\\t" style="width: 70%;"></div>\\n\\t\\t\\t\\t\\t\\t\\t\\t\\t\\t</div>\\n\\t\\t\\t\\t\\t\\t\\t\\t\\t</div>\\n\\t\\t\\t\\t\\t\\t\\t\\t</div>\\n\\t\\t\\t\\t\\t\\t\\t</div>\\n\\t\\t\\t\\t\\t\\t\\t<!-- //End Widget -->\\n\\t\\t\\t\\t\\t\\t\\t<!-- Widget -->\\n\\t\\t\\t\\t\\t\\t\\t<div class="widget widget-body-gray">\\n\\t\\t\\t\\t\\t\\t\\t\\t<div class="innerAll half border-bottom">\\n\\t\\t\\t\\t\\t\\t\\t\\t\\t<div class="btn-group btn-group-sm pull-right">\\n\\t\\t\\t\\t\\t\\t\\t\\t\\t\\t<button data-toggle="dropdown" class="btn btn-primary dropdown-toggle">\\n\\t\\t\\t\\t\\t\\t\\t\\t\\t\\t\\tMonthly <span class="caret"></span>\\n\\t\\t\\t\\t\\t\\t\\t\\t\\t\\t</button>\\n\\t\\t\\t\\t\\t\\t\\t\\t\\t\\t<ul class="dropdown-menu">\\n\\t\\t\\t\\t\\t\\t\\t\\t\\t\\t\\t<li class="active">\\n\\t\\t\\t\\t\\t\\t\\t\\t\\t\\t\\t\\t<a href="">Monthly</a>\\n\\t\\t\\t\\t\\t\\t\\t\\t\\t\\t\\t</li>\\n\\t\\t\\t\\t\\t\\t\\t\\t\\t\\t\\t<li>\\n\\t\\t\\t\\t\\t\\t\\t\\t\\t\\t\\t\\t<a href="">Quarterly</a>\\n\\t\\t\\t\\t\\t\\t\\t\\t\\t\\t\\t</li>\\n\\t\\t\\t\\t\\t\\t\\t\\t\\t\\t\\t<li>\\n\\t\\t\\t\\t\\t\\t\\t\\t\\t\\t\\t\\t<a href="">Yearly</a>\\n\\t\\t\\t\\t\\t\\t\\t\\t\\t\\t\\t</li>\\n\\t\\t\\t\\t\\t\\t\\t\\t\\t\\t</ul>\\n\\t\\t\\t\\t\\t\\t\\t\\t\\t</div>\\n\\t\\t\\t\\t\\t\\t\\t\\t\\t<h4 class="innerT half margin-none pull-left">Monthly Spend</h4>\\n\\t\\t\\t\\t\\t\\t\\t\\t\\t<div class="clearfix"></div>\\n\\t\\t\\t\\t\\t\\t\\t\\t</div>\\n\\t\\t\\t\\t\\t\\t\\t\\t<div class="widget-body">\\n\\t\\t\\t\\t\\t\\t\\t\\t\\t<p class="margin-none">\\n\\t\\t\\t\\t\\t\\t\\t\\t\\t\\tLorem ipsum dolor sit amet, consectetur adipisicing\\n\\t\\t\\t\\t\\t\\t\\t\\t\\t\\telit. Quod, ipsam, minus nam consequatur aliquid\\n\\t\\t\\t\\t\\t\\t\\t\\t\\t\\tsint.\\n\\t\\t\\t\\t\\t\\t\\t\\t\\t</p>\\n\\t\\t\\t\\t\\t\\t\\t\\t</div>\\n\\t\\t\\t\\t\\t\\t\\t\\t<div class="innerAll ">\\n\\t\\t\\t\\t\\t\\t\\t\\t\\t<p class="text-large">\\n\\t\\t\\t\\t\\t\\t\\t\\t\\t\\t&euro;3,204.89\\n\\t\\t\\t\\t\\t\\t\\t\\t\\t</p>\\n\\t\\t\\t\\t\\t\\t\\t\\t\\t<div class="progress">\\n\\t\\t\\t\\t\\t\\t\\t\\t\\t\\t<div class="progress-bar progress-bar-primary" role="progressbar" aria-valuenow="40"\\n\\t\\t\\t\\t\\t\\t\\t\\t\\t\\taria-valuemin="0" aria-valuemax="100" style="width: 40%">\\n\\t\\t\\t\\t\\t\\t\\t\\t\\t\\t\\t<span class="sr-only">40% from last month</span>\\n\\t\\t\\t\\t\\t\\t\\t\\t\\t\\t</div>\\n\\t\\t\\t\\t\\t\\t\\t\\t\\t</div>\\n\\t\\t\\t\\t\\t\\t\\t\\t\\t<div class="text-right">\\n\\t\\t\\t\\t\\t\\t\\t\\t\\t\\t<p class="strong margin-none">\\n\\t\\t\\t\\t\\t\\t\\t\\t\\t\\t\\t&euro;5,127.82\\n\\t\\t\\t\\t\\t\\t\\t\\t\\t\\t</p>\\n\\t\\t\\t\\t\\t\\t\\t\\t\\t\\t<p>\\n\\t\\t\\t\\t\\t\\t\\t\\t\\t\\t\\t<em>Previus month bill</em>\\n\\t\\t\\t\\t\\t\\t\\t\\t\\t\\t</p>\\n\\t\\t\\t\\t\\t\\t\\t\\t\\t</div>\\n\\t\\t\\t\\t\\t\\t\\t\\t</div>\\n\\t\\t\\t\\t\\t\\t\\t</div>\\n\\t\\t\\t\\t\\t\\t\\t<!-- //End Widget -->\\n\\t\\t\\t\\t\\t\\t\\t<!-- Widget\\t -->\\n\\t\\t\\t\\t\\t\\t\\t<div class="widget">\\n\\t\\t\\t\\t\\t\\t\\t\\t<div class="widget-head">\\n\\t\\t\\t\\t\\t\\t\\t\\t\\t<h4 class="innerAll half"><i class="fa fa-fw icon-worldwide"></i> Demographic</h4>\\n\\t\\t\\t\\t\\t\\t\\t\\t</div>\\n\\t\\t\\t\\t\\t\\t\\t\\t<div class="bg-white border-bottom text-center">\\n\\t\\t\\t\\t\\t\\t\\t\\t\\t<div id="world-map-markers" style="height: 200px"></div>\\n\\t\\t\\t\\t\\t\\t\\t\\t</div>\\n\\t\\t\\t\\t\\t\\t\\t\\t<ul class="list-unstyled">\\n\\t\\t\\t\\t\\t\\t\\t\\t\\t<li class="innerAll border-bottom">\\n\\t\\t\\t\\t\\t\\t\\t\\t\\t\\t<div class="pull-right strong">\\n\\t\\t\\t\\t\\t\\t\\t\\t\\t\\t\\t1249\\n\\t\\t\\t\\t\\t\\t\\t\\t\\t\\t</div><i class="fa fa-fw fa-circle text-info"></i> Miami\\n\\t\\t\\t\\t\\t\\t\\t\\t\\t</li>\\n\\t\\t\\t\\t\\t\\t\\t\\t\\t<li class="innerAll border-bottom">\\n\\t\\t\\t\\t\\t\\t\\t\\t\\t\\t<div class="pull-right strong">\\n\\t\\t\\t\\t\\t\\t\\t\\t\\t\\t\\t892\\n\\t\\t\\t\\t\\t\\t\\t\\t\\t\\t</div><i class="fa fa-fw fa-circle text-success"></i> Chicago\\n\\t\\t\\t\\t\\t\\t\\t\\t\\t</li>\\n\\t\\t\\t\\t\\t\\t\\t\\t\\t<li class="innerAll border-bottom">\\n\\t\\t\\t\\t\\t\\t\\t\\t\\t\\t<div class="pull-right strong">\\n\\t\\t\\t\\t\\t\\t\\t\\t\\t\\t\\t530\\n\\t\\t\\t\\t\\t\\t\\t\\t\\t\\t</div><i class="fa fa-fw fa-circle text-primary"></i> Michigan\\n\\t\\t\\t\\t\\t\\t\\t\\t\\t</li>\\n\\t\\t\\t\\t\\t\\t\\t\\t\\t<li class="innerAll">\\n\\t\\t\\t\\t\\t\\t\\t\\t\\t\\t<div class="pull-right strong">\\n\\t\\t\\t\\t\\t\\t\\t\\t\\t\\t\\t380\\n\\t\\t\\t\\t\\t\\t\\t\\t\\t\\t</div><i class="fa fa-fw fa-circle"></i> Boston\\n\\t\\t\\t\\t\\t\\t\\t\\t\\t</li>\\n\\t\\t\\t\\t\\t\\t\\t\\t</ul>\\n\\t\\t\\t\\t\\t\\t\\t</div>\\n\\t\\t\\t\\t\\t\\t\\t<!-- //Widget -->\\n\\t\\t\\t\\t\\t\\t\\t<!-- Widget -->\\n\\t\\t\\t\\t\\t\\t\\t<div class="widget">\\n\\t\\t\\t\\t\\t\\t\\t\\t<div class="row row-merge">\\n\\t\\t\\t\\t\\t\\t\\t\\t\\t<div class="col-md-4 bg-gray">\\n\\t\\t\\t\\t\\t\\t\\t\\t\\t\\t<div class="innerAll inner-2x text-center">\\n\\t\\t\\t\\t\\t\\t\\t\\t\\t\\t\\t<div class="sparkline" sparkHeight="74" data-colors="#cacaca, #4a8bc2,#609450,#cacaca">\\n\\t\\t\\t\\t\\t\\t\\t\\t\\t\\t\\t\\t1,4,3,8\\n\\t\\t\\t\\t\\t\\t\\t\\t\\t\\t\\t</div>\\n\\t\\t\\t\\t\\t\\t\\t\\t\\t\\t</div>\\n\\t\\t\\t\\t\\t\\t\\t\\t\\t</div>\\n\\t\\t\\t\\t\\t\\t\\t\\t\\t<div class="col-md-8">\\n\\t\\t\\t\\t\\t\\t\\t\\t\\t\\t<div class="innerAll">\\n\\t\\t\\t\\t\\t\\t\\t\\t\\t\\t\\t<ul class="list-unstyled">\\n\\t\\t\\t\\t\\t\\t\\t\\t\\t\\t\\t\\t<li class="innerAll half">\\n\\t\\t\\t\\t\\t\\t\\t\\t\\t\\t\\t\\t\\t<i class="fa fa-fw fa-square text-info"></i>\\n\\t\\t\\t\\t\\t\\t\\t\\t\\t\\t\\t\\t\\t<span class="strong">5,931</span>Visits\\n\\t\\t\\t\\t\\t\\t\\t\\t\\t\\t\\t\\t</li>\\n\\t\\t\\t\\t\\t\\t\\t\\t\\t\\t\\t\\t<li class="innerAll half">\\n\\t\\t\\t\\t\\t\\t\\t\\t\\t\\t\\t\\t\\t<i class="fa fa-fw fa-square text-success"></i>\\n\\t\\t\\t\\t\\t\\t\\t\\t\\t\\t\\t\\t\\t<span class="strong">402</span>Conversions\\n\\t\\t\\t\\t\\t\\t\\t\\t\\t\\t\\t\\t</li>\\n\\t\\t\\t\\t\\t\\t\\t\\t\\t\\t\\t\\t<li class="innerAll half">\\n\\t\\t\\t\\t\\t\\t\\t\\t\\t\\t\\t\\t\\t<i class="fa fa-fw fa-square text-muted"></i>\\n\\t\\t\\t\\t\\t\\t\\t\\t\\t\\t\\t\\t\\t<span class="strong">15,120</span>Pageviews\\n\\t\\t\\t\\t\\t\\t\\t\\t\\t\\t\\t\\t</li>\\n\\t\\t\\t\\t\\t\\t\\t\\t\\t\\t\\t</ul>\\n\\t\\t\\t\\t\\t\\t\\t\\t\\t\\t</div>\\n\\t\\t\\t\\t\\t\\t\\t\\t\\t</div>\\n\\t\\t\\t\\t\\t\\t\\t\\t</div>\\n\\t\\t\\t\\t\\t\\t\\t</div>\\n\\t\\t\\t\\t\\t\\t\\t<!-- //End Widget -->\\n\\t\\t\\t\\t\\t\\t\\t<!-- Widget -->\\n\\t\\t\\t\\t\\t\\t\\t<div class="widget widget-body-gray">\\n\\t\\t\\t\\t\\t\\t\\t\\t<div class=" innerAll half border-bottom">\\n\\t\\t\\t\\t\\t\\t\\t\\t\\t<div class="btn-group btn-group-sm pull-right">\\n\\t\\t\\t\\t\\t\\t\\t\\t\\t\\t<button class="btn btn-primary dropdown-toggle" data-toggle="dropdown">\\n\\t\\t\\t\\t\\t\\t\\t\\t\\t\\t\\tDay <span class="caret"></span>\\n\\t\\t\\t\\t\\t\\t\\t\\t\\t\\t</button>\\n\\t\\t\\t\\t\\t\\t\\t\\t\\t\\t<ul class="dropdown-menu" role="menu">\\n\\t\\t\\t\\t\\t\\t\\t\\t\\t\\t\\t<li>\\n\\t\\t\\t\\t\\t\\t\\t\\t\\t\\t\\t\\t<a href="#">Day</a>\\n\\t\\t\\t\\t\\t\\t\\t\\t\\t\\t\\t</li>\\n\\t\\t\\t\\t\\t\\t\\t\\t\\t\\t\\t<li>\\n\\t\\t\\t\\t\\t\\t\\t\\t\\t\\t\\t\\t<a href="#">Week</a>\\n\\t\\t\\t\\t\\t\\t\\t\\t\\t\\t\\t</li>\\n\\t\\t\\t\\t\\t\\t\\t\\t\\t\\t\\t<li>\\n\\t\\t\\t\\t\\t\\t\\t\\t\\t\\t\\t\\t<a href="#">Month</a>\\n\\t\\t\\t\\t\\t\\t\\t\\t\\t\\t\\t</li>\\n\\t\\t\\t\\t\\t\\t\\t\\t\\t\\t</ul>\\n\\t\\t\\t\\t\\t\\t\\t\\t\\t</div>\\n\\t\\t\\t\\t\\t\\t\\t\\t\\t<h4 class="pull-left innerT half margin-none"><i class="fa fa-fw fa-money"></i> Earnings</h4>\\n\\t\\t\\t\\t\\t\\t\\t\\t\\t<div class="clearfix"></div>\\n\\t\\t\\t\\t\\t\\t\\t\\t</div>\\n\\t\\t\\t\\t\\t\\t\\t\\t<div class="innerAll border-bottom">\\n\\t\\t\\t\\t\\t\\t\\t\\t\\t<p class="margin-none">\\n\\t\\t\\t\\t\\t\\t\\t\\t\\t\\t<span class="strong">Today:</span>&euro;502.42 <i class="fa text-primary fa-fw fa-arrow-up"></i>\\n\\t\\t\\t\\t\\t\\t\\t\\t\\t\\t<span class="strong text-primary">4%</span>\\n\\t\\t\\t\\t\\t\\t\\t\\t\\t</p>\\n\\t\\t\\t\\t\\t\\t\\t\\t</div>\\n\\t\\t\\t\\t\\t\\t\\t\\t<div class="widget-body ">\\n\\t\\t\\t\\t\\t\\t\\t\\t\\t<div class="sparkline" sparkType="line" sparkResize="true" sparkHeight="76" sparkLineWidth="2"\\n\\t\\t\\t\\t\\t\\t\\t\\t\\tsparkWidth="100%" sparkLineColor="#3695d5" sparkSpotColor="#3695d5"\\n\\t\\t\\t\\t\\t\\t\\t\\t\\tsparkFillColor="" sparkHighlightLineColor="#7c7c7c"\\n\\t\\t\\t\\t\\t\\t\\t\\t\\tsparkHighlightSpotColor="#7c7c7c" sparkSpotRadius="4"\\n\\t\\t\\t\\t\\t\\t\\t\\t\\tsparkMinSpotColor="#b55151" sparkMaxSpotColor="#609450">\\n\\t\\t\\t\\t\\t\\t\\t\\t\\t\\t195,450,235,138,265,218,299,168,371,193\\n\\t\\t\\t\\t\\t\\t\\t\\t\\t</div>\\n\\t\\t\\t\\t\\t\\t\\t\\t</div>\\n\\t\\t\\t\\t\\t\\t\\t</div>\\n\\t\\t\\t\\t\\t\\t\\t<!-- //End Widget -->\\n\\t\\t\\t\\t\\t\\t</div>\\n\\t\\t\\t\\t\\t\\t<!-- //End Col -->\\n\\t\\t\\t\\t\\t</div>\\n\\t\\t\\t\\t</div>\\n\\t\\t\\t</div>\\n\\t\\t\\t<!-- // Content END -->\\n\\t\\t\\t<div class="clearfix"></div>\\n\\t\\t\\t<!-- // Sidebar menu & content wrapper END -->\\n\\t\\t\\t<div class="row">\\n\\t\\t\\t\\t<footer class="footer span12" id="footer">\\n\\t\\t\\t\\t\\t<div class="footer-content">\\n\\t\\t\\t\\t\\t\\t\', escape=False)'
p103
sI120
S'response.write(\' <!-- this is default footer -->\\n\\t\\t\\t\\t\\t\\t<div class="copyright pull-left">\\n\\t\\t\\t\\t\\t\\t\\t\', escape=False)'
p104
sI121
S"response.write(T('Copyright'))"
p105
sI122
S"response.write(' &#169; ', escape=False)"
p106
sI123
S'response.write(request.now.year)'
p107
sI124
S'response.write(\' Wehrlem\\n\\t\\t\\t\\t\\t\\t</div>\\n\\t\\t\\t\\t\\t\\t<div id="poweredBy" class="pull-right">\\n\\n\\t\\t\\t\\t\\t\\t\\t<a href="http://www.unifr.ch/"><img class="img-responsive img-thumbnail" src="\', escape=False)'
p108
sI125
S"response.write(URL('static', 'images/unifr.png'))"
p109
sI126
S'response.write(\'" /></a>\\n\\t\\t\\t\\t\\t\\t</div>\\n\\t\\t\\t\\t\\t\\t\', escape=False)'
p110
ssg83
S'()'
p111
sg85
S'<module>'
p112
sasS'pyver'
p113
S'Python 2.7.5: /Users/marcelwehrle/Virtualenvs/kti/bin/python (prefix: /Users/marcelwehrle/Virtualenvs/kti)'
p114
sS'session'
p115
g57
(S's\x9b\x00\x00\x00<div><table><tr><td style="font-weight:bold;vertical-align:top;">counter</td><td style="vertical-align:top;">:</td><td><div>4</div></td></tr></table></div>'
tRp116
sS'etype'
p117
S"<type 'exceptions.NameError'>"
p118
sS'date'
p119
S'Sat Apr 12 15:42:54 2014'
p120
sS'response'
p121
g57
(S's\x0f\x1c\x00\x00<div><table><tr><td style="font-weight:bold;vertical-align:top;">body</td><td style="vertical-align:top;">:</td><td><div>&lt;cStringIO.StringO object at 0x10c6336c0&gt;</div></td></tr><tr><td style="font-weight:bold;vertical-align:top;">cookies</td><td style="vertical-align:top;">:</td><td><div><table><tr><td style="font-weight:bold;vertical-align:top;">session_id_kti</td><td style="vertical-align:top;">:</td><td><div>127.0.0.1-29bacbf7-edb1-40f9-b688-b607c194111e<table><tr><td style="font-weight:bold;vertical-align:top;">comment</td><td style="vertical-align:top;">:</td><td><div></div></td></tr><tr><td style="font-weight:bold;vertical-align:top;">domain</td><td style="vertical-align:top;">:</td><td><div></div></td></tr><tr><td style="font-weight:bold;vertical-align:top;">expires</td><td style="vertical-align:top;">:</td><td><div></div></td></tr><tr><td style="font-weight:bold;vertical-align:top;">httponly</td><td style="vertical-align:top;">:</td><td><div></div></td></tr><tr><td style="font-weight:bold;vertical-align:top;">max-age</td><td style="vertical-align:top;">:</td><td><div></div></td></tr><tr><td style="font-weight:bold;vertical-align:top;">path</td><td style="vertical-align:top;">:</td><td><div>/</div></td></tr><tr><td style="font-weight:bold;vertical-align:top;">secure</td><td style="vertical-align:top;">:</td><td><div></div></td></tr><tr><td style="font-weight:bold;vertical-align:top;">version</td><td style="vertical-align:top;">:</td><td><div></div></td></tr></table></div></td></tr></table></div></td></tr><tr><td style="font-weight:bold;vertical-align:top;">delimiters</td><td style="vertical-align:top;">:</td><td><div><table><tr><td><div>{{</div></td></tr><tr><td><div>}}</div></td></tr></table></div></td></tr><tr><td style="font-weight:bold;vertical-align:top;">files</td><td style="vertical-align:top;">:</td><td><div><table><tr><td><div>/KTI/static/js/jquery.js</div></td></tr><tr><td><div>/KTI/static/css/style.css</div></td></tr><tr><td><div>/KTI/static/js/web2py.js</div></td></tr></table></div></td></tr><tr><td style="font-weight:bold;vertical-align:top;">flash</td><td style="vertical-align:top;">:</td><td><div></div></td></tr><tr><td style="font-weight:bold;vertical-align:top;">generic_patterns</td><td style="vertical-align:top;">:</td><td><div><table><tr><td><div>*</div></td></tr></table></div></td></tr><tr><td style="font-weight:bold;vertical-align:top;">headers</td><td style="vertical-align:top;">:</td><td><div><table><tr><td style="font-weight:bold;vertical-align:top;">X-Powered-By</td><td style="vertical-align:top;">:</td><td><div>web2py</div></td></tr></table></div></td></tr><tr><td style="font-weight:bold;vertical-align:top;">menu</td><td style="vertical-align:top;">:</td><td><div><table><tr><td><div><table><tr><td><div>Home</div></td></tr><tr><td><div>True</div></td></tr><tr><td><div>/KTI/default/index</div></td></tr><tr><td><div><table></table></div></td></tr></table></div></td></tr><tr><td><div><table><tr><td><div>Twitter</div></td></tr><tr><td><div>False</div></td></tr><tr><td><div>/KTI/default/twitter</div></td></tr><tr><td><div><table></table></div></td></tr></table></div></td></tr></table></div></td></tr><tr><td style="font-weight:bold;vertical-align:top;">meta</td><td style="vertical-align:top;">:</td><td><div><table><tr><td style="font-weight:bold;vertical-align:top;">author</td><td style="vertical-align:top;">:</td><td><div>Marcel Wehrle &lt;marcel@unifr.ch&gt;</div></td></tr><tr><td style="font-weight:bold;vertical-align:top;">description</td><td style="vertical-align:top;">:</td><td><div>Dashboard to visualize data collected for the KTI - project</div></td></tr><tr><td style="font-weight:bold;vertical-align:top;">keywords</td><td style="vertical-align:top;">:</td><td><div></div></td></tr></table></div></td></tr><tr><td style="font-weight:bold;vertical-align:top;">models_to_run</td><td style="vertical-align:top;">:</td><td><div><table><tr><td><div>^\\w+\\.py$</div></td></tr><tr><td><div>^default/\\w+\\.py$</div></td></tr><tr><td><div>^default/index/\\w+\\.py$</div></td></tr></table></div></td></tr><tr><td style="font-weight:bold;vertical-align:top;">postprocessing</td><td style="vertical-align:top;">:</td><td><div><table></table></div></td></tr><tr><td style="font-weight:bold;vertical-align:top;">session_client</td><td style="vertical-align:top;">:</td><td><div>127.0.0.1</div></td></tr><tr><td style="font-weight:bold;vertical-align:top;">session_cookie_compression_level</td><td style="vertical-align:top;">:</td><td><div>None</div></td></tr><tr><td style="font-weight:bold;vertical-align:top;">session_cookie_expires</td><td style="vertical-align:top;">:</td><td><div>None</div></td></tr><tr><td style="font-weight:bold;vertical-align:top;">session_cookie_key</td><td style="vertical-align:top;">:</td><td><div>None</div></td></tr><tr><td style="font-weight:bold;vertical-align:top;">session_data_name</td><td style="vertical-align:top;">:</td><td><div>session_data_kti</div></td></tr><tr><td style="font-weight:bold;vertical-align:top;">session_file</td><td style="vertical-align:top;">:</td><td><div>&lt;open file &#x27;/Users/marcelwehrle/Virtualenvs/kti/web/applications/KTI/sessions/127.0.0.1-29bacbf7-edb1-40f9-b688-b607c194111e&#x27;, mode &#x27;rb+&#x27; at 0x1117ebf60&gt;</div></td></tr><tr><td style="font-weight:bold;vertical-align:top;">session_filename</td><td style="vertical-align:top;">:</td><td><div>/Users/marcelwehrle/Virtualenvs/kti/web/applications/KTI/sessions/127.0.0.1-29bacbf7-edb1-40f9-b688-b607c194111e</div></td></tr><tr><td style="font-weight:bold;vertical-align:top;">session_hash</td><td style="vertical-align:top;">:</td><td><div>63d70b0e237f203d5dcf2e0fc7e764ac</div></td></tr><tr><td style="font-weight:bold;vertical-align:top;">session_id</td><td style="vertical-align:top;">:</td><td><div>127.0.0.1-29bacbf7-edb1-40f9-b688-b607c194111e</div></td></tr><tr><td style="font-weight:bold;vertical-align:top;">session_id_name</td><td style="vertical-align:top;">:</td><td><div>session_id_kti</div></td></tr><tr><td style="font-weight:bold;vertical-align:top;">session_locked</td><td style="vertical-align:top;">:</td><td><div>True</div></td></tr><tr><td style="font-weight:bold;vertical-align:top;">session_masterapp</td><td style="vertical-align:top;">:</td><td><div>KTI</div></td></tr><tr><td style="font-weight:bold;vertical-align:top;">session_new</td><td style="vertical-align:top;">:</td><td><div>False</div></td></tr><tr><td style="font-weight:bold;vertical-align:top;">session_storage_type</td><td style="vertical-align:top;">:</td><td><div>file</div></td></tr><tr><td style="font-weight:bold;vertical-align:top;">status</td><td style="vertical-align:top;">:</td><td><div>200</div></td></tr><tr><td style="font-weight:bold;vertical-align:top;">subtitle</td><td style="vertical-align:top;">:</td><td><div>Trends for tourism</div></td></tr><tr><td style="font-weight:bold;vertical-align:top;">title</td><td style="vertical-align:top;">:</td><td><div>KTI Dashboard</div></td></tr><tr><td style="font-weight:bold;vertical-align:top;">view</td><td style="vertical-align:top;">:</td><td><div>default/index.html</div></td></tr></table></div>'
tRp122
sS'locals'
p123
(dp124
S'Service'
p125
S"<class 'gluon.tools.Service'>"
p126
sS'OBJECT'
p127
S"<class 'gluon.html.OBJECT'>"
p128
sS'SQLDB'
p129
S"<class 'gluon.dal.DAL'>"
p130
sg115
S"<Storage {'counter': 4, '_user_agent': <Storage ...version': '34.0.1847.116', 'name': 'Chrome'}>}>}>"
p131
sS'LINK'
p132
S"<class 'gluon.html.LINK'>"
p133
sS'BR'
p134
S"<class 'gluon.html.BR'>"
p135
sS'local_import'
p136
S'<function <lambda>>'
p137
sS'OPTGROUP'
p138
S"<class 'gluon.html.OPTGROUP'>"
p139
sS'__package__'
p140
S'None'
p141
sS'PRE'
p142
S"<class 'gluon.html.PRE'>"
p143
sS'IS_INT_IN_RANGE'
p144
S"<class 'gluon.validators.IS_INT_IN_RANGE'>"
p145
sS'left_sidebar_enabled'
p146
S'False'
p147
sS'IS_LOWER'
p148
S"<class 'gluon.validators.IS_LOWER'>"
p149
sS'IS_STRONG'
p150
S"<class 'gluon.validators.IS_STRONG'>"
p151
sS'cache'
p152
S'<gluon.cache.Cache object>'
p153
sS'IS_IN_DB'
p154
S"<class 'gluon.validators.IS_IN_DB'>"
p155
sS'TAG'
p156
S'<gluon.html.__TAG__ object>'
p157
sS'SQLField'
p158
S"<class 'gluon.dal.Field'>"
p159
sS'mail'
p160
S'<gluon.tools.Mail object>'
p161
sS'BODY'
p162
S"<class 'gluon.html.BODY'>"
p163
sS'IS_DATE_IN_RANGE'
p164
S"<class 'gluon.validators.IS_DATE_IN_RANGE'>"
p165
sS'IFRAME'
p166
S"<class 'gluon.html.IFRAME'>"
p167
sS'URL'
p168
S'<function URL>'
p169
sS'__file__'
p170
S"'/Users/marcelwehrle/Virtualenvs/kti/web/applications/KTI/views/default/index.html'"
p171
sS'db'
p172
S'<DAL uri="mongodb:******@127.0.0.1/ktidasboard">'
p173
sS'auth'
p174
S'<gluon.tools.Auth object>'
p175
sS'P'
S"<class 'gluon.html.P'>"
p176
sS'TFOOT'
p177
S"<class 'gluon.html.TFOOT'>"
p178
sS'XHTML'
p179
S"<class 'gluon.html.XHTML'>"
p180
sS'ON'
p181
S'True'
p182
sS'OL'
p183
S"<class 'gluon.html.OL'>"
p184
sS'TEXTAREA'
p185
S"<class 'gluon.html.TEXTAREA'>"
p186
sS'settings'
p187
S"<Storage {'layout_theme': 'Default', 'subtitle':...l_server': 'localhost', 'login_method': 'local'}>"
p188
sS'MENU'
p189
S"<class 'gluon.html.MENU'>"
p190
sS'IS_IMAGE'
p191
S"<class 'gluon.validators.IS_IMAGE'>"
p192
sS'EM'
p193
S"<class 'gluon.html.EM'>"
p194
sS'CODE'
p195
S"<class 'gluon.html.CODE'>"
p196
sS'HTTP'
p197
S"<class 'gluon.http.HTTP'>"
p198
sS'HR'
p199
S"<class 'gluon.html.HR'>"
p200
sS'IS_DATETIME'
p201
S"<class 'gluon.validators.IS_DATETIME'>"
p202
sS'Storage'
p203
S"<class 'gluon.storage.Storage'>"
p204
sS'STYLE'
p205
S"<class 'gluon.html.STYLE'>"
p206
sS'LABEL'
p207
S"<class 'gluon.html.LABEL'>"
p208
sS'CLEANUP'
p209
S"<class 'gluon.validators.CLEANUP'>"
p210
sS'plugins'
p211
S'<gluon.tools.PluginManager object>'
p212
sS'SELECT'
p213
S"<class 'gluon.html.SELECT'>"
p214
sS'use_janrain'
p215
S'<function use_janrain>'
p216
sS'CENTER'
p217
S"<class 'gluon.html.CENTER'>"
p218
sS'prettydate'
p219
S'<function prettydate>'
p220
sS'Crud'
p221
S"<class 'gluon.tools.Crud'>"
p222
sS'Auth'
p223
S"<class 'gluon.tools.Auth'>"
p224
sS'__builtins__'
p225
S"{'ArithmeticError': <type 'exceptions.ArithmeticError'>, 'AssertionError': <type 'exceptions.AssertionError'>, 'AttributeError': <type 'exceptions.AttributeError'>, 'BaseException': <type 'exceptions.BaseException'>, 'BufferError': <type 'exceptions.BufferError'>, 'BytesWarning': <type 'exceptions.BytesWarning'>, 'DeprecationWarning': <type 'exceptions.DeprecationWarning'>, 'EOFError': <type 'exceptions.EOFError'>, 'Ellipsis': Ellipsis, 'EnvironmentError': <type 'exceptions.EnvironmentError'>, ...}"
p226
sS'HTML'
p227
S"<class 'gluon.html.HTML'>"
p228
sS'SQLFORM'
p229
S"<class 'gluon.sqlhtml.SQLFORM'>"
p230
sS'LOAD'
p231
S'<function LOAD>'
p232
sS'redirect'
p233
S'<function redirect>'
p234
sS'FIELDSET'
p235
S"<class 'gluon.html.FIELDSET'>"
p236
sS'IS_EQUAL_TO'
p237
S"<class 'gluon.validators.IS_EQUAL_TO'>"
p238
sS'embed64'
p239
S'<function embed64>'
p240
sS'IS_LIST_OF'
p241
S"<class 'gluon.validators.IS_LIST_OF'>"
p242
sS'INPUT'
p243
S"<class 'gluon.html.INPUT'>"
p244
sS'EMBED'
p245
S"<class 'gluon.html.EMBED'>"
p246
sS'FORM'
p247
S"<class 'gluon.html.FORM'>"
p248
sS'H2'
p249
S"<class 'gluon.html.H2'>"
p250
sS'H3'
p251
S"<class 'gluon.html.H3'>"
p252
sS'BUTTON'
p253
S"<class 'gluon.html.BUTTON'>"
p254
sS'H1'
p255
S"<class 'gluon.html.H1'>"
p256
sS'H6'
p257
S"<class 'gluon.html.H6'>"
p258
sS'H4'
p259
S"<class 'gluon.html.H4'>"
p260
sS'H5'
p261
S"<class 'gluon.html.H5'>"
p262
sS'UL'
p263
S"<class 'gluon.html.UL'>"
p264
sS'IS_UPPER'
p265
S"<class 'gluon.validators.IS_UPPER'>"
p266
sS'xmlescape'
p267
S'<function xmlescape>'
p268
sS'IS_TIME'
p269
S"<class 'gluon.validators.IS_TIME'>"
p270
sS'OPTION'
p271
S"<class 'gluon.html.OPTION'>"
p272
sS'TITLE'
p273
S"<class 'gluon.html.TITLE'>"
p274
sS'CRYPT'
p275
S"<class 'gluon.validators.CRYPT'>"
p276
sS'IS_EMPTY_OR'
p277
S"<class 'gluon.validators.IS_EMPTY_OR'>"
p278
sS'MARKMIN'
p279
S"<class 'gluon.html.MARKMIN'>"
p280
sS'__name__'
p281
S"'__restricted__'"
p282
sS'STRONG'
p283
S"<class 'gluon.html.STRONG'>"
p284
sS'COL'
p285
S"<class 'gluon.html.COL'>"
p286
sS'service'
p287
S'<gluon.tools.Service object>'
p288
sS'SCRIPT'
p289
S"<class 'gluon.html.SCRIPT'>"
p290
sS'TABLE'
p291
S"<class 'gluon.html.TABLE'>"
p292
sS'IS_IPV4'
p293
S"<class 'gluon.validators.IS_IPV4'>"
p294
sS'IS_LENGTH'
p295
S"<class 'gluon.validators.IS_LENGTH'>"
p296
sS'IS_IPV6'
p297
S"<class 'gluon.validators.IS_IPV6'>"
p298
sS'XML'
p299
S"<class 'gluon.html.XML'>"
p300
sS'B'
S"<class 'gluon.html.B'>"
p301
sS'IMG'
p302
S"<class 'gluon.html.IMG'>"
p303
sS'SQLTABLE'
p304
S"<class 'gluon.sqlhtml.SQLTABLE'>"
p305
sS'IS_MATCH'
p306
S"<class 'gluon.validators.IS_MATCH'>"
p307
sS'IS_ALPHANUMERIC'
p308
S"<class 'gluon.validators.IS_ALPHANUMERIC'>"
p309
sS'SPAN'
p310
S"<class 'gluon.html.SPAN'>"
p311
sS'IS_JSON'
p312
S"<class 'gluon.validators.IS_JSON'>"
p313
sS'IS_IPADDRESS'
p314
S"<class 'gluon.validators.IS_IPADDRESS'>"
p315
sS'IS_SLUG'
p316
S"<class 'gluon.validators.IS_SLUG'>"
p317
sS'BEAUTIFY'
p318
S"<class 'gluon.html.BEAUTIFY'>"
p319
sS'META'
p320
S"<class 'gluon.html.META'>"
p321
sS'IS_DATE'
p322
S"<class 'gluon.validators.IS_DATE'>"
p323
sS'IS_EMAIL'
p324
S"<class 'gluon.validators.IS_EMAIL'>"
p325
sS'IS_NOT_EMPTY'
p326
S"<class 'gluon.validators.IS_NOT_EMPTY'>"
p327
sS'IS_FLOAT_IN_RANGE'
p328
S"<class 'gluon.validators.IS_FLOAT_IN_RANGE'>"
p329
sS'TBODY'
p330
S"<class 'gluon.html.TBODY'>"
p331
sS'CAT'
p332
S"<class 'gluon.html.CAT'>"
p333
sS'Field'
p334
S"<class 'gluon.dal.Field'>"
p335
sS'IS_LIST_OF_EMAILS'
p336
S"<class 'gluon.validators.IS_LIST_OF_EMAILS'>"
p337
sS'middle_columns'
p338
S"'span12'"
p339
sS'DIV'
p340
S"<class 'gluon.html.DIV'>"
p341
sS'LEGEND'
p342
S"<class 'gluon.html.LEGEND'>"
p343
sS'COLGROUP'
p344
S"<class 'gluon.html.COLGROUP'>"
p345
sS'DAL'
p346
S"<class 'gluon.dal.DAL'>"
p347
sS'TT'
p348
S"<class 'gluon.html.TT'>"
p349
sS'TR'
p350
S"<class 'gluon.html.TR'>"
p351
sS'LI'
p352
S"<class 'gluon.html.LI'>"
p353
sS'right_sidebar_enabled'
p354
g147
sS'TH'
p355
S"<class 'gluon.html.TH'>"
p356
sS'TD'
p357
S"<class 'gluon.html.TD'>"
p358
sS'PluginManager'
p359
S"<class 'gluon.tools.PluginManager'>"
p360
sS'IS_URL'
p361
S"<class 'gluon.validators.IS_URL'>"
p362
sS'A'
S"<class 'gluon.html.A'>"
p363
sS'HEAD'
p364
S"<class 'gluon.html.HEAD'>"
p365
sS'IS_DATETIME_IN_RANGE'
p366
S"<class 'gluon.validators.IS_DATETIME_IN_RANGE'>"
p367
sS'populate'
p368
S'<function populate>'
p369
sS'I'
S"<class 'gluon.html.I'>"
p370
sS'crud'
p371
S'<gluon.tools.Crud object>'
p372
sS'IS_NOT_IN_DB'
p373
S"<class 'gluon.validators.IS_NOT_IN_DB'>"
p374
sg121
S"<Storage {'body': <cStringIO.StringO object at 0...> at 0x1117cd8c0>, 'view': 'default/index.html'}>"
p375
sS'THEAD'
p376
S"<class 'gluon.html.THEAD'>"
p377
sS'ANY_OF'
p378
S"<class 'gluon.validators.ANY_OF'>"
p379
sS'IS_NULL_OR'
p380
S"<class 'gluon.validators.IS_EMPTY_OR'>"
p381
sg56
S"<Storage {'_vars': None, 'function': 'index', 'c...elwehrle/Virtualenvs/kti/web/applications/KTI/'}>"
p382
sS'IS_EXPR'
p383
S"<class 'gluon.validators.IS_EXPR'>"
p384
sS'T'
S'<gluon.languages.translator object>'
p385
sS'IS_IN_SET'
p386
S"<class 'gluon.validators.IS_IN_SET'>"
p387
sS'IS_UPLOAD_FILENAME'
p388
S"<class 'gluon.validators.IS_UPLOAD_FILENAME'>"
p389
sS'IS_DECIMAL_IN_RANGE'
p390
S"<class 'gluon.validators.IS_DECIMAL_IN_RANGE'>"
p391
sssS'traceback'
p392
S'Traceback (most recent call last):\n  File "/Users/marcelwehrle/Virtualenvs/kti/web/gluon/restricted.py", line 220, in restricted\n    exec ccode in environment\n  File "/Users/marcelwehrle/Virtualenvs/kti/web/applications/KTI/views/default/index.html", line 116, in <module>\nNameError: name \'is_mobile\' is not defined\n'
p393
s.